
main.elf:     file format elf32-littleriscv


Disassembly of section .text:

00000000 <_isr_handler>:
       0:	0080006f          	j	8 <_isr_routine>
       4:	1440006f          	j	148 <_start>

00000008 <_isr_routine>:
       8:	f8010113          	addi	sp,sp,-128
       c:	00112023          	sw	ra,0(sp)
      10:	00312423          	sw	gp,8(sp)
      14:	00412623          	sw	tp,12(sp)
      18:	00512823          	sw	t0,16(sp)
      1c:	00612a23          	sw	t1,20(sp)
      20:	00712c23          	sw	t2,24(sp)
      24:	00812e23          	sw	s0,28(sp)
      28:	02912023          	sw	s1,32(sp)
      2c:	02a12223          	sw	a0,36(sp)
      30:	02b12423          	sw	a1,40(sp)
      34:	02c12623          	sw	a2,44(sp)
      38:	02d12823          	sw	a3,48(sp)
      3c:	02e12a23          	sw	a4,52(sp)
      40:	02f12c23          	sw	a5,56(sp)
      44:	03012e23          	sw	a6,60(sp)
      48:	05112023          	sw	a7,64(sp)
      4c:	05212223          	sw	s2,68(sp)
      50:	05312423          	sw	s3,72(sp)
      54:	05412623          	sw	s4,76(sp)
      58:	05512823          	sw	s5,80(sp)
      5c:	05612a23          	sw	s6,84(sp)
      60:	05712c23          	sw	s7,88(sp)
      64:	05812e23          	sw	s8,92(sp)
      68:	07912023          	sw	s9,96(sp)
      6c:	07a12223          	sw	s10,100(sp)
      70:	07b12423          	sw	s11,104(sp)
      74:	07c12623          	sw	t3,108(sp)
      78:	07d12823          	sw	t4,112(sp)
      7c:	07e12a23          	sw	t5,116(sp)
      80:	07f12c23          	sw	t6,120(sp)
      84:	342022f3          	csrr	t0,mcause
      88:	80000337          	lui	t1,0x80000
      8c:	02536463          	bltu	t1,t0,b4 <external_irq>
      90:	00028833          	add	a6,t0,zero
      94:	00b00313          	li	t1,11
      98:	00628463          	beq	t0,t1,a0 <skip_init_args>
      9c:	34102573          	csrr	a0,mepc

000000a0 <skip_init_args>:
      a0:	420040ef          	jal	44c0 <handle_exception>
      a4:	341022f3          	csrr	t0,mepc
      a8:	00428293          	addi	t0,t0,4
      ac:	34129073          	csrw	mepc,t0
      b0:	0180006f          	j	c8 <restore>

000000b4 <external_irq>:
      b4:	800002b7          	lui	t0,0x80000
      b8:	fff28293          	addi	t0,t0,-1 # 7fffffff <_stack_end+0x7fe62563>
      bc:	34202373          	csrr	t1,mcause
      c0:	0062f533          	and	a0,t0,t1
      c4:	39d020ef          	jal	2c60 <handle_interrupt>

000000c8 <restore>:
      c8:	00012083          	lw	ra,0(sp)
      cc:	00812183          	lw	gp,8(sp)
      d0:	00c12203          	lw	tp,12(sp)
      d4:	01012283          	lw	t0,16(sp)
      d8:	01412303          	lw	t1,20(sp)
      dc:	01812383          	lw	t2,24(sp)
      e0:	01c12403          	lw	s0,28(sp)
      e4:	02012483          	lw	s1,32(sp)
      e8:	02412503          	lw	a0,36(sp)
      ec:	02812583          	lw	a1,40(sp)
      f0:	02c12603          	lw	a2,44(sp)
      f4:	03012683          	lw	a3,48(sp)
      f8:	03412703          	lw	a4,52(sp)
      fc:	03812783          	lw	a5,56(sp)
     100:	03c12803          	lw	a6,60(sp)
     104:	04012883          	lw	a7,64(sp)
     108:	04412903          	lw	s2,68(sp)
     10c:	04812983          	lw	s3,72(sp)
     110:	04c12a03          	lw	s4,76(sp)
     114:	05012a83          	lw	s5,80(sp)
     118:	05412b03          	lw	s6,84(sp)
     11c:	05812b83          	lw	s7,88(sp)
     120:	05c12c03          	lw	s8,92(sp)
     124:	06012c83          	lw	s9,96(sp)
     128:	06412d03          	lw	s10,100(sp)
     12c:	06812d83          	lw	s11,104(sp)
     130:	06c12e03          	lw	t3,108(sp)
     134:	07012e83          	lw	t4,112(sp)
     138:	07412f03          	lw	t5,116(sp)
     13c:	07812f83          	lw	t6,120(sp)
     140:	08010113          	addi	sp,sp,128
     144:	30200073          	mret

00000148 <_start>:
     148:	30401073          	csrw	mie,zero
     14c:	0019e117          	auipc	sp,0x19e
     150:	95010113          	addi	sp,sp,-1712 # 19da9c <_stack_end>
     154:	00008197          	auipc	gp,0x8
     158:	a2818193          	addi	gp,gp,-1496 # 7b7c <__global_pointer>
     15c:	00007517          	auipc	a0,0x7
     160:	18c50513          	addi	a0,a0,396 # 72e8 <welcome_msg>
     164:	00400893          	li	a7,4
     168:	00000073          	ecall
     16c:	45d020ef          	jal	2dc8 <main>

00000170 <loop>:
     170:	0000006f          	j	170 <loop>

00000174 <enable_interrupt>:
     174:	30486073          	csrsi	mie,16
     178:	3048e073          	csrsi	mie,17
     17c:	30496073          	csrsi	mie,18
     180:	3001e073          	csrsi	mstatus,3
     184:	00008067          	ret

00000188 <compare_triangle_z>:
     188:	ff010113          	addi	sp,sp,-16
     18c:	00812423          	sw	s0,8(sp)
     190:	00912223          	sw	s1,4(sp)
     194:	00c52403          	lw	s0,12(a0)
     198:	00c5a483          	lw	s1,12(a1)
     19c:	00112623          	sw	ra,12(sp)
     1a0:	00040513          	mv	a0,s0
     1a4:	00048593          	mv	a1,s1
     1a8:	008070ef          	jal	71b0 <__ltsf2>
     1ac:	02054663          	bltz	a0,1d8 <compare_triangle_z+0x50>
     1b0:	00048593          	mv	a1,s1
     1b4:	00040513          	mv	a0,s0
     1b8:	7b9060ef          	jal	7170 <__gtsf2>
     1bc:	00c12083          	lw	ra,12(sp)
     1c0:	00812403          	lw	s0,8(sp)
     1c4:	00a02533          	sgtz	a0,a0
     1c8:	00412483          	lw	s1,4(sp)
     1cc:	40a00533          	neg	a0,a0
     1d0:	01010113          	addi	sp,sp,16
     1d4:	00008067          	ret
     1d8:	00c12083          	lw	ra,12(sp)
     1dc:	00812403          	lw	s0,8(sp)
     1e0:	00412483          	lw	s1,4(sp)
     1e4:	00100513          	li	a0,1
     1e8:	01010113          	addi	sp,sp,16
     1ec:	00008067          	ret

000001f0 <draw_line>:
     1f0:	fb010113          	addi	sp,sp,-80
     1f4:	00060713          	mv	a4,a2
     1f8:	00068793          	mv	a5,a3
     1fc:	00050613          	mv	a2,a0
     200:	00058693          	mv	a3,a1
     204:	00a12423          	sw	a0,8(sp)
     208:	00b12623          	sw	a1,12(sp)
     20c:	00070513          	mv	a0,a4
     210:	00078593          	mv	a1,a5
     214:	04112623          	sw	ra,76(sp)
     218:	04812423          	sw	s0,72(sp)
     21c:	04912223          	sw	s1,68(sp)
     220:	05212023          	sw	s2,64(sp)
     224:	654030ef          	jal	3878 <vec2_sub>
     228:	00058493          	mv	s1,a1
     22c:	00b12e23          	sw	a1,28(sp)
     230:	00050913          	mv	s2,a0
     234:	00a12c23          	sw	a0,24(sp)
     238:	28c050ef          	jal	54c4 <fabsf>
     23c:	00050413          	mv	s0,a0
     240:	00048513          	mv	a0,s1
     244:	280050ef          	jal	54c4 <fabsf>
     248:	00050593          	mv	a1,a0
     24c:	00040513          	mv	a0,s0
     250:	721060ef          	jal	7170 <__gtsf2>
     254:	0ca05663          	blez	a0,320 <draw_line+0x130>
     258:	00090513          	mv	a0,s2
     25c:	268050ef          	jal	54c4 <fabsf>
     260:	619060ef          	jal	7078 <__fixsfsi>
     264:	00050493          	mv	s1,a0
     268:	00048513          	mv	a0,s1
     26c:	65d060ef          	jal	70c8 <__floatsisf>
     270:	00050613          	mv	a2,a0
     274:	01c12583          	lw	a1,28(sp)
     278:	01812503          	lw	a0,24(sp)
     27c:	6a0030ef          	jal	391c <vec2_div>
     280:	00812783          	lw	a5,8(sp)
     284:	02a12023          	sw	a0,32(sp)
     288:	02b12223          	sw	a1,36(sp)
     28c:	02f12423          	sw	a5,40(sp)
     290:	00c12783          	lw	a5,12(sp)
     294:	02f12623          	sw	a5,44(sp)
     298:	0604c863          	bltz	s1,308 <draw_line+0x118>
     29c:	03312e23          	sw	s3,60(sp)
     2a0:	03412c23          	sw	s4,56(sp)
     2a4:	03512a23          	sw	s5,52(sp)
     2a8:	00000413          	li	s0,0
     2ac:	00007ab7          	lui	s5,0x7
     2b0:	00007a37          	lui	s4,0x7
     2b4:	000079b7          	lui	s3,0x7
     2b8:	00007937          	lui	s2,0x7
     2bc:	37caa783          	lw	a5,892(s5) # 737c <draw_a>
     2c0:	380a2703          	lw	a4,896(s4) # 7380 <draw_b>
     2c4:	3849a683          	lw	a3,900(s3) # 7384 <draw_g>
     2c8:	38892603          	lw	a2,904(s2) # 7388 <draw_r>
     2cc:	02812503          	lw	a0,40(sp)
     2d0:	02c12583          	lw	a1,44(sp)
     2d4:	00140413          	addi	s0,s0,1
     2d8:	5c5000ef          	jal	109c <set_pbuffer>
     2dc:	02012603          	lw	a2,32(sp)
     2e0:	02412683          	lw	a3,36(sp)
     2e4:	02812503          	lw	a0,40(sp)
     2e8:	02c12583          	lw	a1,44(sp)
     2ec:	534030ef          	jal	3820 <vec2_add>
     2f0:	02a12423          	sw	a0,40(sp)
     2f4:	02b12623          	sw	a1,44(sp)
     2f8:	fc84d2e3          	bge	s1,s0,2bc <draw_line+0xcc>
     2fc:	03c12983          	lw	s3,60(sp)
     300:	03812a03          	lw	s4,56(sp)
     304:	03412a83          	lw	s5,52(sp)
     308:	04c12083          	lw	ra,76(sp)
     30c:	04812403          	lw	s0,72(sp)
     310:	04412483          	lw	s1,68(sp)
     314:	04012903          	lw	s2,64(sp)
     318:	05010113          	addi	sp,sp,80
     31c:	00008067          	ret
     320:	00048513          	mv	a0,s1
     324:	1a0050ef          	jal	54c4 <fabsf>
     328:	551060ef          	jal	7078 <__fixsfsi>
     32c:	00050493          	mv	s1,a0
     330:	f39ff06f          	j	268 <draw_line+0x78>

00000334 <computeArea>:
     334:	fe010113          	addi	sp,sp,-32
     338:	01412423          	sw	s4,8(sp)
     33c:	01512223          	sw	s5,4(sp)
     340:	0045aa03          	lw	s4,4(a1)
     344:	00462a83          	lw	s5,4(a2)
     348:	00912a23          	sw	s1,20(sp)
     34c:	01212823          	sw	s2,16(sp)
     350:	00058493          	mv	s1,a1
     354:	00050913          	mv	s2,a0
     358:	000a8593          	mv	a1,s5
     35c:	000a0513          	mv	a0,s4
     360:	00112e23          	sw	ra,28(sp)
     364:	00812c23          	sw	s0,24(sp)
     368:	01312623          	sw	s3,12(sp)
     36c:	00060413          	mv	s0,a2
     370:	1a9060ef          	jal	6d18 <__subsf3>
     374:	00092583          	lw	a1,0(s2)
     378:	00492983          	lw	s3,4(s2)
     37c:	67d060ef          	jal	71f8 <__mulsf3>
     380:	00050913          	mv	s2,a0
     384:	00098593          	mv	a1,s3
     388:	000a8513          	mv	a0,s5
     38c:	18d060ef          	jal	6d18 <__subsf3>
     390:	0004a583          	lw	a1,0(s1)
     394:	665060ef          	jal	71f8 <__mulsf3>
     398:	00050593          	mv	a1,a0
     39c:	00090513          	mv	a0,s2
     3a0:	181060ef          	jal	6d20 <__addsf3>
     3a4:	00050493          	mv	s1,a0
     3a8:	000a0593          	mv	a1,s4
     3ac:	00098513          	mv	a0,s3
     3b0:	169060ef          	jal	6d18 <__subsf3>
     3b4:	00042583          	lw	a1,0(s0)
     3b8:	641060ef          	jal	71f8 <__mulsf3>
     3bc:	00050593          	mv	a1,a0
     3c0:	00048513          	mv	a0,s1
     3c4:	15d060ef          	jal	6d20 <__addsf3>
     3c8:	0009e7b7          	lui	a5,0x9e
     3cc:	8fc7a583          	lw	a1,-1796(a5) # 9d8fc <CSWTCH.6+0x528>
     3d0:	629060ef          	jal	71f8 <__mulsf3>
     3d4:	01812403          	lw	s0,24(sp)
     3d8:	01c12083          	lw	ra,28(sp)
     3dc:	01412483          	lw	s1,20(sp)
     3e0:	01012903          	lw	s2,16(sp)
     3e4:	00c12983          	lw	s3,12(sp)
     3e8:	00812a03          	lw	s4,8(sp)
     3ec:	00412a83          	lw	s5,4(sp)
     3f0:	02010113          	addi	sp,sp,32
     3f4:	0d00506f          	j	54c4 <fabsf>

000003f8 <rasterize_triangle>:
     3f8:	f6010113          	addi	sp,sp,-160
     3fc:	00052683          	lw	a3,0(a0)
     400:	00058793          	mv	a5,a1
     404:	00050713          	mv	a4,a0
     408:	08912a23          	sw	s1,148(sp)
     40c:	0005a503          	lw	a0,0(a1)
     410:	00472483          	lw	s1,4(a4)
     414:	09212823          	sw	s2,144(sp)
     418:	00872703          	lw	a4,8(a4)
     41c:	0087a903          	lw	s2,8(a5)
     420:	09312623          	sw	s3,140(sp)
     424:	00862983          	lw	s3,8(a2)
     428:	07912a23          	sw	s9,116(sp)
     42c:	00462c83          	lw	s9,4(a2)
     430:	00068593          	mv	a1,a3
     434:	08112e23          	sw	ra,156(sp)
     438:	00d12823          	sw	a3,16(sp)
     43c:	04e12623          	sw	a4,76(sp)
     440:	08812c23          	sw	s0,152(sp)
     444:	09412423          	sw	s4,136(sp)
     448:	09512223          	sw	s5,132(sp)
     44c:	00068a13          	mv	s4,a3
     450:	07a12823          	sw	s10,112(sp)
     454:	07b12623          	sw	s11,108(sp)
     458:	0047ad03          	lw	s10,4(a5)
     45c:	00062d83          	lw	s11,0(a2)
     460:	09612023          	sw	s6,128(sp)
     464:	07712e23          	sw	s7,124(sp)
     468:	07812c23          	sw	s8,120(sp)
     46c:	00912623          	sw	s1,12(sp)
     470:	00050a93          	mv	s5,a0
     474:	00a12a23          	sw	a0,20(sp)
     478:	05212223          	sw	s2,68(sp)
     47c:	05312423          	sw	s3,72(sp)
     480:	099060ef          	jal	6d18 <__subsf3>
     484:	00050413          	mv	s0,a0
     488:	00048593          	mv	a1,s1
     48c:	000c8513          	mv	a0,s9
     490:	089060ef          	jal	6d18 <__subsf3>
     494:	00050593          	mv	a1,a0
     498:	00040513          	mv	a0,s0
     49c:	55d060ef          	jal	71f8 <__mulsf3>
     4a0:	00048593          	mv	a1,s1
     4a4:	00050413          	mv	s0,a0
     4a8:	000d0513          	mv	a0,s10
     4ac:	06d060ef          	jal	6d18 <__subsf3>
     4b0:	00050493          	mv	s1,a0
     4b4:	000a0593          	mv	a1,s4
     4b8:	000d8513          	mv	a0,s11
     4bc:	05d060ef          	jal	6d18 <__subsf3>
     4c0:	00050593          	mv	a1,a0
     4c4:	00048513          	mv	a0,s1
     4c8:	531060ef          	jal	71f8 <__mulsf3>
     4cc:	00050593          	mv	a1,a0
     4d0:	00040513          	mv	a0,s0
     4d4:	045060ef          	jal	6d18 <__subsf3>
     4d8:	00000593          	li	a1,0
     4dc:	4d5060ef          	jal	71b0 <__ltsf2>
     4e0:	02054263          	bltz	a0,504 <rasterize_triangle+0x10c>
     4e4:	000c8713          	mv	a4,s9
     4e8:	000d8793          	mv	a5,s11
     4ec:	000d0c93          	mv	s9,s10
     4f0:	05212423          	sw	s2,72(sp)
     4f4:	000a8d93          	mv	s11,s5
     4f8:	05312223          	sw	s3,68(sp)
     4fc:	00070d13          	mv	s10,a4
     500:	00f12a23          	sw	a5,20(sp)
     504:	01412c03          	lw	s8,20(sp)
     508:	000d8513          	mv	a0,s11
     50c:	000c0593          	mv	a1,s8
     510:	7ed040ef          	jal	54fc <fmin>
     514:	01012b83          	lw	s7,16(sp)
     518:	00050593          	mv	a1,a0
     51c:	000b8513          	mv	a0,s7
     520:	7dd040ef          	jal	54fc <fmin>
     524:	00050993          	mv	s3,a0
     528:	000c0593          	mv	a1,s8
     52c:	000d8513          	mv	a0,s11
     530:	008050ef          	jal	5538 <fmax>
     534:	00050593          	mv	a1,a0
     538:	000b8513          	mv	a0,s7
     53c:	7fd040ef          	jal	5538 <fmax>
     540:	00050413          	mv	s0,a0
     544:	000d0593          	mv	a1,s10
     548:	000c8513          	mv	a0,s9
     54c:	7b1040ef          	jal	54fc <fmin>
     550:	00c12b03          	lw	s6,12(sp)
     554:	00050593          	mv	a1,a0
     558:	000b0513          	mv	a0,s6
     55c:	7a1040ef          	jal	54fc <fmin>
     560:	00050913          	mv	s2,a0
     564:	000d0593          	mv	a1,s10
     568:	000c8513          	mv	a0,s9
     56c:	7cd040ef          	jal	5538 <fmax>
     570:	00050593          	mv	a1,a0
     574:	000b0513          	mv	a0,s6
     578:	7c1040ef          	jal	5538 <fmax>
     57c:	00050493          	mv	s1,a0
     580:	00098513          	mv	a0,s3
     584:	7f1040ef          	jal	5574 <floor>
     588:	00050993          	mv	s3,a0
     58c:	00040513          	mv	a0,s0
     590:	070050ef          	jal	5600 <ceil>
     594:	00050413          	mv	s0,a0
     598:	00090513          	mv	a0,s2
     59c:	7d9040ef          	jal	5574 <floor>
     5a0:	00050913          	mv	s2,a0
     5a4:	00048513          	mv	a0,s1
     5a8:	058050ef          	jal	5600 <ceil>
     5ac:	00050493          	mv	s1,a0
     5b0:	00098513          	mv	a0,s3
     5b4:	2c5060ef          	jal	7078 <__fixsfsi>
     5b8:	311060ef          	jal	70c8 <__floatsisf>
     5bc:	00050593          	mv	a1,a0
     5c0:	00000513          	li	a0,0
     5c4:	775040ef          	jal	5538 <fmax>
     5c8:	2b1060ef          	jal	7078 <__fixsfsi>
     5cc:	00050793          	mv	a5,a0
     5d0:	00040513          	mv	a0,s0
     5d4:	00078413          	mv	s0,a5
     5d8:	2a1060ef          	jal	7078 <__fixsfsi>
     5dc:	2ed060ef          	jal	70c8 <__floatsisf>
     5e0:	0009e7b7          	lui	a5,0x9e
     5e4:	00050593          	mv	a1,a0
     5e8:	9007a503          	lw	a0,-1792(a5) # 9d900 <CSWTCH.6+0x52c>
     5ec:	711040ef          	jal	54fc <fmin>
     5f0:	289060ef          	jal	7078 <__fixsfsi>
     5f4:	00050793          	mv	a5,a0
     5f8:	00090513          	mv	a0,s2
     5fc:	00078993          	mv	s3,a5
     600:	279060ef          	jal	7078 <__fixsfsi>
     604:	2c5060ef          	jal	70c8 <__floatsisf>
     608:	00050593          	mv	a1,a0
     60c:	00000513          	li	a0,0
     610:	729040ef          	jal	5538 <fmax>
     614:	265060ef          	jal	7078 <__fixsfsi>
     618:	00050a13          	mv	s4,a0
     61c:	00048513          	mv	a0,s1
     620:	259060ef          	jal	7078 <__fixsfsi>
     624:	2a5060ef          	jal	70c8 <__floatsisf>
     628:	0009e7b7          	lui	a5,0x9e
     62c:	00050593          	mv	a1,a0
     630:	9047a503          	lw	a0,-1788(a5) # 9d904 <CSWTCH.6+0x530>
     634:	6c9040ef          	jal	54fc <fmin>
     638:	241060ef          	jal	7078 <__fixsfsi>
     63c:	00a12c23          	sw	a0,24(sp)
     640:	3a89c463          	blt	s3,s0,9e8 <__heap_size+0x1e8>
     644:	3b454263          	blt	a0,s4,9e8 <__heap_size+0x1e8>
     648:	002a1793          	slli	a5,s4,0x2
     64c:	014787b3          	add	a5,a5,s4
     650:	00679793          	slli	a5,a5,0x6
     654:	008787b3          	add	a5,a5,s0
     658:	00007737          	lui	a4,0x7
     65c:	3a470713          	addi	a4,a4,932 # 73a4 <zbuffer>
     660:	00279793          	slli	a5,a5,0x2
     664:	000d0593          	mv	a1,s10
     668:	000c8513          	mv	a0,s9
     66c:	00e78ab3          	add	s5,a5,a4
     670:	6a8060ef          	jal	6d18 <__subsf3>
     674:	00050793          	mv	a5,a0
     678:	000b0593          	mv	a1,s6
     67c:	000d0513          	mv	a0,s10
     680:	00078913          	mv	s2,a5
     684:	00f12e23          	sw	a5,28(sp)
     688:	690060ef          	jal	6d18 <__subsf3>
     68c:	00050793          	mv	a5,a0
     690:	000c8593          	mv	a1,s9
     694:	000b0513          	mv	a0,s6
     698:	02f12023          	sw	a5,32(sp)
     69c:	00078b13          	mv	s6,a5
     6a0:	678060ef          	jal	6d18 <__subsf3>
     6a4:	00050793          	mv	a5,a0
     6a8:	000b8593          	mv	a1,s7
     6ac:	00090513          	mv	a0,s2
     6b0:	02f12223          	sw	a5,36(sp)
     6b4:	00078913          	mv	s2,a5
     6b8:	341060ef          	jal	71f8 <__mulsf3>
     6bc:	00050493          	mv	s1,a0
     6c0:	000b0593          	mv	a1,s6
     6c4:	000d8513          	mv	a0,s11
     6c8:	331060ef          	jal	71f8 <__mulsf3>
     6cc:	00050593          	mv	a1,a0
     6d0:	00048513          	mv	a0,s1
     6d4:	64c060ef          	jal	6d20 <__addsf3>
     6d8:	00050493          	mv	s1,a0
     6dc:	00090593          	mv	a1,s2
     6e0:	000c0513          	mv	a0,s8
     6e4:	315060ef          	jal	71f8 <__mulsf3>
     6e8:	00050593          	mv	a1,a0
     6ec:	00048513          	mv	a0,s1
     6f0:	630060ef          	jal	6d20 <__addsf3>
     6f4:	0009e4b7          	lui	s1,0x9e
     6f8:	8fc4a583          	lw	a1,-1796(s1) # 9d8fc <CSWTCH.6+0x528>
     6fc:	2fd060ef          	jal	71f8 <__mulsf3>
     700:	0009e7b7          	lui	a5,0x9e
     704:	9087a783          	lw	a5,-1784(a5) # 9d908 <CSWTCH.6+0x534>
     708:	8fc4ab83          	lw	s7,-1796(s1)
     70c:	05412023          	sw	s4,64(sp)
     710:	02f12a23          	sw	a5,52(sp)
     714:	0009e7b7          	lui	a5,0x9e
     718:	90c7a783          	lw	a5,-1780(a5) # 9d90c <CSWTCH.6+0x538>
     71c:	02a12423          	sw	a0,40(sp)
     720:	03312e23          	sw	s3,60(sp)
     724:	02f12c23          	sw	a5,56(sp)
     728:	000a8a13          	mv	s4,s5
     72c:	00040513          	mv	a0,s0
     730:	199060ef          	jal	70c8 <__floatsisf>
     734:	00050b13          	mv	s6,a0
     738:	04012903          	lw	s2,64(sp)
     73c:	000a0c13          	mv	s8,s4
     740:	02812623          	sw	s0,44(sp)
     744:	03412823          	sw	s4,48(sp)
     748:	0140006f          	j	75c <rasterize_triangle+0x364>
     74c:	01812783          	lw	a5,24(sp)
     750:	00190913          	addi	s2,s2,1
     754:	500c0c13          	addi	s8,s8,1280
     758:	2727cc63          	blt	a5,s2,9d0 <__heap_size+0x1d0>
     75c:	00090513          	mv	a0,s2
     760:	169060ef          	jal	70c8 <__floatsisf>
     764:	00050413          	mv	s0,a0
     768:	02812503          	lw	a0,40(sp)
     76c:	559040ef          	jal	54c4 <fabsf>
     770:	00050493          	mv	s1,a0
     774:	00040593          	mv	a1,s0
     778:	000d0513          	mv	a0,s10
     77c:	59c060ef          	jal	6d18 <__subsf3>
     780:	000d8593          	mv	a1,s11
     784:	275060ef          	jal	71f8 <__mulsf3>
     788:	00050993          	mv	s3,a0
     78c:	01c12503          	lw	a0,28(sp)
     790:	000b0593          	mv	a1,s6
     794:	265060ef          	jal	71f8 <__mulsf3>
     798:	00050593          	mv	a1,a0
     79c:	00098513          	mv	a0,s3
     7a0:	580060ef          	jal	6d20 <__addsf3>
     7a4:	00050993          	mv	s3,a0
     7a8:	000c8593          	mv	a1,s9
     7ac:	00040513          	mv	a0,s0
     7b0:	568060ef          	jal	6d18 <__subsf3>
     7b4:	01412a83          	lw	s5,20(sp)
     7b8:	000a8593          	mv	a1,s5
     7bc:	23d060ef          	jal	71f8 <__mulsf3>
     7c0:	00050593          	mv	a1,a0
     7c4:	00098513          	mv	a0,s3
     7c8:	558060ef          	jal	6d20 <__addsf3>
     7cc:	000b8593          	mv	a1,s7
     7d0:	229060ef          	jal	71f8 <__mulsf3>
     7d4:	4f1040ef          	jal	54c4 <fabsf>
     7d8:	00050993          	mv	s3,a0
     7dc:	000d0593          	mv	a1,s10
     7e0:	00040513          	mv	a0,s0
     7e4:	534060ef          	jal	6d18 <__subsf3>
     7e8:	01012583          	lw	a1,16(sp)
     7ec:	20d060ef          	jal	71f8 <__mulsf3>
     7f0:	00050a13          	mv	s4,a0
     7f4:	02012503          	lw	a0,32(sp)
     7f8:	000b0593          	mv	a1,s6
     7fc:	1fd060ef          	jal	71f8 <__mulsf3>
     800:	00050593          	mv	a1,a0
     804:	000a0513          	mv	a0,s4
     808:	518060ef          	jal	6d20 <__addsf3>
     80c:	00050a13          	mv	s4,a0
     810:	00c12503          	lw	a0,12(sp)
     814:	00040593          	mv	a1,s0
     818:	500060ef          	jal	6d18 <__subsf3>
     81c:	000a8593          	mv	a1,s5
     820:	1d9060ef          	jal	71f8 <__mulsf3>
     824:	00050593          	mv	a1,a0
     828:	000a0513          	mv	a0,s4
     82c:	4f4060ef          	jal	6d20 <__addsf3>
     830:	000b8593          	mv	a1,s7
     834:	1c5060ef          	jal	71f8 <__mulsf3>
     838:	48d040ef          	jal	54c4 <fabsf>
     83c:	00040593          	mv	a1,s0
     840:	00050a93          	mv	s5,a0
     844:	000c8513          	mv	a0,s9
     848:	4d0060ef          	jal	6d18 <__subsf3>
     84c:	01012583          	lw	a1,16(sp)
     850:	1a9060ef          	jal	71f8 <__mulsf3>
     854:	00c12583          	lw	a1,12(sp)
     858:	00050a13          	mv	s4,a0
     85c:	00040513          	mv	a0,s0
     860:	4b8060ef          	jal	6d18 <__subsf3>
     864:	000d8593          	mv	a1,s11
     868:	191060ef          	jal	71f8 <__mulsf3>
     86c:	00050593          	mv	a1,a0
     870:	000a0513          	mv	a0,s4
     874:	4ac060ef          	jal	6d20 <__addsf3>
     878:	00050a13          	mv	s4,a0
     87c:	02412503          	lw	a0,36(sp)
     880:	000b0593          	mv	a1,s6
     884:	175060ef          	jal	71f8 <__mulsf3>
     888:	00050593          	mv	a1,a0
     88c:	000a0513          	mv	a0,s4
     890:	490060ef          	jal	6d20 <__addsf3>
     894:	000b8593          	mv	a1,s7
     898:	161060ef          	jal	71f8 <__mulsf3>
     89c:	429040ef          	jal	54c4 <fabsf>
     8a0:	00050793          	mv	a5,a0
     8a4:	00048593          	mv	a1,s1
     8a8:	00098513          	mv	a0,s3
     8ac:	00078993          	mv	s3,a5
     8b0:	634060ef          	jal	6ee4 <__divsf3>
     8b4:	00000593          	li	a1,0
     8b8:	00050a13          	mv	s4,a0
     8bc:	065060ef          	jal	7120 <__gesf2>
     8c0:	e80546e3          	bltz	a0,74c <rasterize_triangle+0x354>
     8c4:	00048593          	mv	a1,s1
     8c8:	000a8513          	mv	a0,s5
     8cc:	618060ef          	jal	6ee4 <__divsf3>
     8d0:	00000593          	li	a1,0
     8d4:	00050a93          	mv	s5,a0
     8d8:	049060ef          	jal	7120 <__gesf2>
     8dc:	e60548e3          	bltz	a0,74c <rasterize_triangle+0x354>
     8e0:	00048593          	mv	a1,s1
     8e4:	00098513          	mv	a0,s3
     8e8:	5fc060ef          	jal	6ee4 <__divsf3>
     8ec:	00000593          	li	a1,0
     8f0:	00050493          	mv	s1,a0
     8f4:	02d060ef          	jal	7120 <__gesf2>
     8f8:	e4054ae3          	bltz	a0,74c <rasterize_triangle+0x354>
     8fc:	000a8593          	mv	a1,s5
     900:	000a0513          	mv	a0,s4
     904:	41c060ef          	jal	6d20 <__addsf3>
     908:	00048593          	mv	a1,s1
     90c:	414060ef          	jal	6d20 <__addsf3>
     910:	03412583          	lw	a1,52(sp)
     914:	404060ef          	jal	6d18 <__subsf3>
     918:	3ad040ef          	jal	54c4 <fabsf>
     91c:	03812583          	lw	a1,56(sp)
     920:	091060ef          	jal	71b0 <__ltsf2>
     924:	e20554e3          	bgez	a0,74c <rasterize_triangle+0x354>
     928:	04c12583          	lw	a1,76(sp)
     92c:	000a0513          	mv	a0,s4
     930:	0c9060ef          	jal	71f8 <__mulsf3>
     934:	04812583          	lw	a1,72(sp)
     938:	00050993          	mv	s3,a0
     93c:	000a8513          	mv	a0,s5
     940:	0b9060ef          	jal	71f8 <__mulsf3>
     944:	00050593          	mv	a1,a0
     948:	00098513          	mv	a0,s3
     94c:	3d4060ef          	jal	6d20 <__addsf3>
     950:	00050793          	mv	a5,a0
     954:	04412503          	lw	a0,68(sp)
     958:	00048593          	mv	a1,s1
     95c:	00078493          	mv	s1,a5
     960:	099060ef          	jal	71f8 <__mulsf3>
     964:	00050593          	mv	a1,a0
     968:	00048513          	mv	a0,s1
     96c:	3b4060ef          	jal	6d20 <__addsf3>
     970:	00050493          	mv	s1,a0
     974:	000c2503          	lw	a0,0(s8)
     978:	00048593          	mv	a1,s1
     97c:	035060ef          	jal	71b0 <__ltsf2>
     980:	dc0556e3          	bgez	a0,74c <rasterize_triangle+0x354>
     984:	00048613          	mv	a2,s1
     988:	000b0513          	mv	a0,s6
     98c:	00040593          	mv	a1,s0
     990:	7e4000ef          	jal	1174 <set_zbuffer>
     994:	000077b7          	lui	a5,0x7
     998:	00007737          	lui	a4,0x7
     99c:	000076b7          	lui	a3,0x7
     9a0:	00007637          	lui	a2,0x7
     9a4:	37c7a783          	lw	a5,892(a5) # 737c <draw_a>
     9a8:	38072703          	lw	a4,896(a4) # 7380 <draw_b>
     9ac:	3846a683          	lw	a3,900(a3) # 7384 <draw_g>
     9b0:	38862603          	lw	a2,904(a2) # 7388 <draw_r>
     9b4:	000b0513          	mv	a0,s6
     9b8:	00040593          	mv	a1,s0
     9bc:	6e0000ef          	jal	109c <set_pbuffer>
     9c0:	01812783          	lw	a5,24(sp)
     9c4:	00190913          	addi	s2,s2,1
     9c8:	500c0c13          	addi	s8,s8,1280
     9cc:	d927d8e3          	bge	a5,s2,75c <rasterize_triangle+0x364>
     9d0:	02c12403          	lw	s0,44(sp)
     9d4:	03012a03          	lw	s4,48(sp)
     9d8:	03c12783          	lw	a5,60(sp)
     9dc:	00140413          	addi	s0,s0,1
     9e0:	004a0a13          	addi	s4,s4,4
     9e4:	d487d4e3          	bge	a5,s0,72c <rasterize_triangle+0x334>
     9e8:	09c12083          	lw	ra,156(sp)
     9ec:	09812403          	lw	s0,152(sp)
     9f0:	09412483          	lw	s1,148(sp)
     9f4:	09012903          	lw	s2,144(sp)
     9f8:	08c12983          	lw	s3,140(sp)
     9fc:	08812a03          	lw	s4,136(sp)
     a00:	08412a83          	lw	s5,132(sp)
     a04:	08012b03          	lw	s6,128(sp)
     a08:	07c12b83          	lw	s7,124(sp)
     a0c:	07812c03          	lw	s8,120(sp)
     a10:	07412c83          	lw	s9,116(sp)
     a14:	07012d03          	lw	s10,112(sp)
     a18:	06c12d83          	lw	s11,108(sp)
     a1c:	0a010113          	addi	sp,sp,160
     a20:	00008067          	ret

00000a24 <check_triangle_zbuffer>:
     a24:	fe010113          	addi	sp,sp,-32
     a28:	01412423          	sw	s4,8(sp)
     a2c:	0009ea37          	lui	s4,0x9e
     a30:	00812c23          	sw	s0,24(sp)
     a34:	01212823          	sw	s2,16(sp)
     a38:	00050413          	mv	s0,a0
     a3c:	00058913          	mv	s2,a1
     a40:	00452503          	lw	a0,4(a0)
     a44:	910a2583          	lw	a1,-1776(s4) # 9d910 <CSWTCH.6+0x53c>
     a48:	00112e23          	sw	ra,28(sp)
     a4c:	00912a23          	sw	s1,20(sp)
     a50:	01312623          	sw	s3,12(sp)
     a54:	00060993          	mv	s3,a2
     a58:	7a0060ef          	jal	71f8 <__mulsf3>
     a5c:	00042583          	lw	a1,0(s0)
     a60:	000074b7          	lui	s1,0x7
     a64:	3a448493          	addi	s1,s1,932 # 73a4 <zbuffer>
     a68:	2b8060ef          	jal	6d20 <__addsf3>
     a6c:	60c060ef          	jal	7078 <__fixsfsi>
     a70:	00251513          	slli	a0,a0,0x2
     a74:	00a48533          	add	a0,s1,a0
     a78:	00052583          	lw	a1,0(a0)
     a7c:	00842503          	lw	a0,8(s0)
     a80:	730060ef          	jal	71b0 <__ltsf2>
     a84:	02055a63          	bgez	a0,ab8 <check_triangle_zbuffer+0x94>
     a88:	910a2583          	lw	a1,-1776(s4)
     a8c:	00492503          	lw	a0,4(s2)
     a90:	768060ef          	jal	71f8 <__mulsf3>
     a94:	00092583          	lw	a1,0(s2)
     a98:	288060ef          	jal	6d20 <__addsf3>
     a9c:	5dc060ef          	jal	7078 <__fixsfsi>
     aa0:	00251513          	slli	a0,a0,0x2
     aa4:	00a48533          	add	a0,s1,a0
     aa8:	00052583          	lw	a1,0(a0)
     aac:	00892503          	lw	a0,8(s2)
     ab0:	700060ef          	jal	71b0 <__ltsf2>
     ab4:	02054463          	bltz	a0,adc <check_triangle_zbuffer+0xb8>
     ab8:	01c12083          	lw	ra,28(sp)
     abc:	01812403          	lw	s0,24(sp)
     ac0:	01412483          	lw	s1,20(sp)
     ac4:	01012903          	lw	s2,16(sp)
     ac8:	00c12983          	lw	s3,12(sp)
     acc:	00812a03          	lw	s4,8(sp)
     ad0:	00100513          	li	a0,1
     ad4:	02010113          	addi	sp,sp,32
     ad8:	00008067          	ret
     adc:	910a2583          	lw	a1,-1776(s4)
     ae0:	0049a503          	lw	a0,4(s3)
     ae4:	714060ef          	jal	71f8 <__mulsf3>
     ae8:	0009a583          	lw	a1,0(s3)
     aec:	234060ef          	jal	6d20 <__addsf3>
     af0:	588060ef          	jal	7078 <__fixsfsi>
     af4:	00251513          	slli	a0,a0,0x2
     af8:	00a484b3          	add	s1,s1,a0
     afc:	0004a583          	lw	a1,0(s1)
     b00:	0089a503          	lw	a0,8(s3)
     b04:	6ac060ef          	jal	71b0 <__ltsf2>
     b08:	01c12083          	lw	ra,28(sp)
     b0c:	01812403          	lw	s0,24(sp)
     b10:	01f55513          	srli	a0,a0,0x1f
     b14:	00154513          	xori	a0,a0,1
     b18:	01412483          	lw	s1,20(sp)
     b1c:	01012903          	lw	s2,16(sp)
     b20:	00c12983          	lw	s3,12(sp)
     b24:	00812a03          	lw	s4,8(sp)
     b28:	0ff57513          	zext.b	a0,a0
     b2c:	02010113          	addi	sp,sp,32
     b30:	00008067          	ret

00000b34 <draw_mesh3>:
     b34:	f1010113          	addi	sp,sp,-240
     b38:	0d312e23          	sw	s3,220(sp)
     b3c:	00452983          	lw	s3,4(a0)
     b40:	0d812423          	sw	s8,200(sp)
     b44:	0d912223          	sw	s9,196(sp)
     b48:	0e112623          	sw	ra,236(sp)
     b4c:	0e812423          	sw	s0,232(sp)
     b50:	0f212023          	sw	s2,224(sp)
     b54:	0d412c23          	sw	s4,216(sp)
     b58:	00050c13          	mv	s8,a0
     b5c:	4b850c93          	addi	s9,a0,1208
     b60:	09305063          	blez	s3,be0 <draw_mesh3+0xac>
     b64:	0009e7b7          	lui	a5,0x9e
     b68:	9147a903          	lw	s2,-1772(a5) # 9d914 <CSWTCH.6+0x540>
     b6c:	4b850c93          	addi	s9,a0,1208
     b70:	00599413          	slli	s0,s3,0x5
     b74:	000c8a13          	mv	s4,s9
     b78:	008c8433          	add	s0,s9,s0
     b7c:	000a2603          	lw	a2,0(s4)
     b80:	004a2683          	lw	a3,4(s4)
     b84:	020a0a13          	addi	s4,s4,32
     b88:	00161793          	slli	a5,a2,0x1
     b8c:	00169713          	slli	a4,a3,0x1
     b90:	00c787b3          	add	a5,a5,a2
     b94:	00d70733          	add	a4,a4,a3
     b98:	00279793          	slli	a5,a5,0x2
     b9c:	00271713          	slli	a4,a4,0x2
     ba0:	00fc07b3          	add	a5,s8,a5
     ba4:	00ec0733          	add	a4,s8,a4
     ba8:	01072583          	lw	a1,16(a4)
     bac:	0107a503          	lw	a0,16(a5)
     bb0:	170060ef          	jal	6d20 <__addsf3>
     bb4:	fe8a2703          	lw	a4,-24(s4)
     bb8:	00171793          	slli	a5,a4,0x1
     bbc:	00e787b3          	add	a5,a5,a4
     bc0:	00279793          	slli	a5,a5,0x2
     bc4:	00fc07b3          	add	a5,s8,a5
     bc8:	0107a583          	lw	a1,16(a5)
     bcc:	154060ef          	jal	6d20 <__addsf3>
     bd0:	00090593          	mv	a1,s2
     bd4:	310060ef          	jal	6ee4 <__divsf3>
     bd8:	feaa2623          	sw	a0,-20(s4)
     bdc:	fb4410e3          	bne	s0,s4,b7c <draw_mesh3+0x48>
     be0:	18800693          	li	a3,392
     be4:	02000613          	li	a2,32
     be8:	00098593          	mv	a1,s3
     bec:	000c8513          	mv	a0,s9
     bf0:	2ec050ef          	jal	5edc <qsort>
     bf4:	004c2783          	lw	a5,4(s8)
     bf8:	24f05c63          	blez	a5,e50 <draw_mesh3+0x31c>
     bfc:	0009e7b7          	lui	a5,0x9e
     c00:	9187a783          	lw	a5,-1768(a5) # 9d918 <CSWTCH.6+0x544>
     c04:	0d612823          	sw	s6,208(sp)
     c08:	0da12023          	sw	s10,192(sp)
     c0c:	00f12623          	sw	a5,12(sp)
     c10:	0009e7b7          	lui	a5,0x9e
     c14:	9107a783          	lw	a5,-1776(a5) # 9d910 <CSWTCH.6+0x53c>
     c18:	0bb12e23          	sw	s11,188(sp)
     c1c:	0e912223          	sw	s1,228(sp)
     c20:	00f12e23          	sw	a5,28(sp)
     c24:	000077b7          	lui	a5,0x7
     c28:	3a478793          	addi	a5,a5,932 # 73a4 <zbuffer>
     c2c:	0d512a23          	sw	s5,212(sp)
     c30:	0d712623          	sw	s7,204(sp)
     c34:	00000b13          	li	s6,0
     c38:	00007db7          	lui	s11,0x7
     c3c:	0009dd37          	lui	s10,0x9d
     c40:	00f12c23          	sw	a5,24(sp)
     c44:	008ca603          	lw	a2,8(s9)
     c48:	004ca583          	lw	a1,4(s9)
     c4c:	000ca503          	lw	a0,0(s9)
     c50:	00161793          	slli	a5,a2,0x1
     c54:	00159713          	slli	a4,a1,0x1
     c58:	00c787b3          	add	a5,a5,a2
     c5c:	00b70733          	add	a4,a4,a1
     c60:	00271713          	slli	a4,a4,0x2
     c64:	00279793          	slli	a5,a5,0x2
     c68:	00ec0733          	add	a4,s8,a4
     c6c:	00fc07b3          	add	a5,s8,a5
     c70:	00872983          	lw	s3,8(a4)
     c74:	00c72903          	lw	s2,12(a4)
     c78:	0087aa83          	lw	s5,8(a5)
     c7c:	01072703          	lw	a4,16(a4)
     c80:	00c7aa03          	lw	s4,12(a5)
     c84:	00151693          	slli	a3,a0,0x1
     c88:	0107a783          	lw	a5,16(a5)
     c8c:	00a686b3          	add	a3,a3,a0
     c90:	390da603          	lw	a2,912(s11) # 7390 <rasterize_enable>
     c94:	00269693          	slli	a3,a3,0x2
     c98:	00dc06b3          	add	a3,s8,a3
     c9c:	00e12823          	sw	a4,16(sp)
     ca0:	00f12a23          	sw	a5,20(sp)
     ca4:	0086a483          	lw	s1,8(a3)
     ca8:	00c6a403          	lw	s0,12(a3)
     cac:	0106ab83          	lw	s7,16(a3)
     cb0:	16060863          	beqz	a2,e20 <draw_mesh3+0x2ec>
     cb4:	00c12583          	lw	a1,12(sp)
     cb8:	010ca503          	lw	a0,16(s9)
     cbc:	53c060ef          	jal	71f8 <__mulsf3>
     cc0:	3b8060ef          	jal	7078 <__fixsfsi>
     cc4:	00050713          	mv	a4,a0
     cc8:	00c12583          	lw	a1,12(sp)
     ccc:	014ca503          	lw	a0,20(s9)
     cd0:	000077b7          	lui	a5,0x7
     cd4:	38e7a423          	sw	a4,904(a5) # 7388 <draw_r>
     cd8:	520060ef          	jal	71f8 <__mulsf3>
     cdc:	39c060ef          	jal	7078 <__fixsfsi>
     ce0:	00050713          	mv	a4,a0
     ce4:	00c12583          	lw	a1,12(sp)
     ce8:	018ca503          	lw	a0,24(s9)
     cec:	000077b7          	lui	a5,0x7
     cf0:	38e7a223          	sw	a4,900(a5) # 7384 <draw_g>
     cf4:	504060ef          	jal	71f8 <__mulsf3>
     cf8:	380060ef          	jal	7078 <__fixsfsi>
     cfc:	00050713          	mv	a4,a0
     d00:	00c12583          	lw	a1,12(sp)
     d04:	01cca503          	lw	a0,28(s9)
     d08:	000077b7          	lui	a5,0x7
     d0c:	38e7a023          	sw	a4,896(a5) # 7380 <draw_b>
     d10:	4e8060ef          	jal	71f8 <__mulsf3>
     d14:	364060ef          	jal	7078 <__fixsfsi>
     d18:	01c12583          	lw	a1,28(sp)
     d1c:	00050713          	mv	a4,a0
     d20:	000077b7          	lui	a5,0x7
     d24:	00040513          	mv	a0,s0
     d28:	36e7ae23          	sw	a4,892(a5) # 737c <draw_a>
     d2c:	4cc060ef          	jal	71f8 <__mulsf3>
     d30:	00048593          	mv	a1,s1
     d34:	7ed050ef          	jal	6d20 <__addsf3>
     d38:	340060ef          	jal	7078 <__fixsfsi>
     d3c:	01812783          	lw	a5,24(sp)
     d40:	00251513          	slli	a0,a0,0x2
     d44:	00a78533          	add	a0,a5,a0
     d48:	00052583          	lw	a1,0(a0)
     d4c:	000b8513          	mv	a0,s7
     d50:	460060ef          	jal	71b0 <__ltsf2>
     d54:	06055663          	bgez	a0,dc0 <draw_mesh3+0x28c>
     d58:	01c12583          	lw	a1,28(sp)
     d5c:	00090513          	mv	a0,s2
     d60:	498060ef          	jal	71f8 <__mulsf3>
     d64:	00098593          	mv	a1,s3
     d68:	7b9050ef          	jal	6d20 <__addsf3>
     d6c:	30c060ef          	jal	7078 <__fixsfsi>
     d70:	01812783          	lw	a5,24(sp)
     d74:	00251513          	slli	a0,a0,0x2
     d78:	00a78533          	add	a0,a5,a0
     d7c:	00052583          	lw	a1,0(a0)
     d80:	01012503          	lw	a0,16(sp)
     d84:	42c060ef          	jal	71b0 <__ltsf2>
     d88:	02055c63          	bgez	a0,dc0 <draw_mesh3+0x28c>
     d8c:	01c12583          	lw	a1,28(sp)
     d90:	000a0513          	mv	a0,s4
     d94:	464060ef          	jal	71f8 <__mulsf3>
     d98:	000a8593          	mv	a1,s5
     d9c:	785050ef          	jal	6d20 <__addsf3>
     da0:	2d8060ef          	jal	7078 <__fixsfsi>
     da4:	01812783          	lw	a5,24(sp)
     da8:	00251513          	slli	a0,a0,0x2
     dac:	00a78533          	add	a0,a5,a0
     db0:	00052583          	lw	a1,0(a0)
     db4:	01412503          	lw	a0,20(sp)
     db8:	3f8060ef          	jal	71b0 <__ltsf2>
     dbc:	06054263          	bltz	a0,e20 <draw_mesh3+0x2ec>
     dc0:	01012783          	lw	a5,16(sp)
     dc4:	01412703          	lw	a4,20(sp)
     dc8:	02010613          	addi	a2,sp,32
     dcc:	03010593          	addi	a1,sp,48
     dd0:	04010513          	addi	a0,sp,64
     dd4:	08912623          	sw	s1,140(sp)
     dd8:	08812823          	sw	s0,144(sp)
     ddc:	09712a23          	sw	s7,148(sp)
     de0:	09312c23          	sw	s3,152(sp)
     de4:	09212e23          	sw	s2,156(sp)
     de8:	0af12023          	sw	a5,160(sp)
     dec:	0b512223          	sw	s5,164(sp)
     df0:	0b412423          	sw	s4,168(sp)
     df4:	0ae12623          	sw	a4,172(sp)
     df8:	04912023          	sw	s1,64(sp)
     dfc:	04812223          	sw	s0,68(sp)
     e00:	05712423          	sw	s7,72(sp)
     e04:	03312823          	sw	s3,48(sp)
     e08:	03212a23          	sw	s2,52(sp)
     e0c:	02f12c23          	sw	a5,56(sp)
     e10:	03512023          	sw	s5,32(sp)
     e14:	03412223          	sw	s4,36(sp)
     e18:	02e12423          	sw	a4,40(sp)
     e1c:	ddcff0ef          	jal	3f8 <rasterize_triangle>
     e20:	3b8d2783          	lw	a5,952(s10) # 9d3b8 <wireframe_enable>
     e24:	04079863          	bnez	a5,e74 <draw_mesh3+0x340>
     e28:	004c2783          	lw	a5,4(s8)
     e2c:	001b0b13          	addi	s6,s6,1
     e30:	020c8c93          	addi	s9,s9,32
     e34:	e0fb48e3          	blt	s6,a5,c44 <draw_mesh3+0x110>
     e38:	0e412483          	lw	s1,228(sp)
     e3c:	0d412a83          	lw	s5,212(sp)
     e40:	0d012b03          	lw	s6,208(sp)
     e44:	0cc12b83          	lw	s7,204(sp)
     e48:	0c012d03          	lw	s10,192(sp)
     e4c:	0bc12d83          	lw	s11,188(sp)
     e50:	0ec12083          	lw	ra,236(sp)
     e54:	0e812403          	lw	s0,232(sp)
     e58:	0e012903          	lw	s2,224(sp)
     e5c:	0dc12983          	lw	s3,220(sp)
     e60:	0d812a03          	lw	s4,216(sp)
     e64:	0c812c03          	lw	s8,200(sp)
     e68:	0c412c83          	lw	s9,196(sp)
     e6c:	0f010113          	addi	sp,sp,240
     e70:	00008067          	ret
     e74:	0ff00793          	li	a5,255
     e78:	00007737          	lui	a4,0x7
     e7c:	38f72423          	sw	a5,904(a4) # 7388 <draw_r>
     e80:	00007737          	lui	a4,0x7
     e84:	38072223          	sw	zero,900(a4) # 7384 <draw_g>
     e88:	00007737          	lui	a4,0x7
     e8c:	00098613          	mv	a2,s3
     e90:	00090693          	mv	a3,s2
     e94:	00048513          	mv	a0,s1
     e98:	00040593          	mv	a1,s0
     e9c:	38072023          	sw	zero,896(a4) # 7380 <draw_b>
     ea0:	00007737          	lui	a4,0x7
     ea4:	36f72e23          	sw	a5,892(a4) # 737c <draw_a>
     ea8:	04912e23          	sw	s1,92(sp)
     eac:	06812023          	sw	s0,96(sp)
     eb0:	07312223          	sw	s3,100(sp)
     eb4:	07212423          	sw	s2,104(sp)
     eb8:	b38ff0ef          	jal	1f0 <draw_line>
     ebc:	000a8613          	mv	a2,s5
     ec0:	000a0693          	mv	a3,s4
     ec4:	00098513          	mv	a0,s3
     ec8:	00090593          	mv	a1,s2
     ecc:	07312623          	sw	s3,108(sp)
     ed0:	07212823          	sw	s2,112(sp)
     ed4:	07512a23          	sw	s5,116(sp)
     ed8:	07412c23          	sw	s4,120(sp)
     edc:	b14ff0ef          	jal	1f0 <draw_line>
     ee0:	00048613          	mv	a2,s1
     ee4:	00040693          	mv	a3,s0
     ee8:	000a8513          	mv	a0,s5
     eec:	000a0593          	mv	a1,s4
     ef0:	07512e23          	sw	s5,124(sp)
     ef4:	09412023          	sw	s4,128(sp)
     ef8:	08912223          	sw	s1,132(sp)
     efc:	08812423          	sw	s0,136(sp)
     f00:	af0ff0ef          	jal	1f0 <draw_line>
     f04:	004c2783          	lw	a5,4(s8)
     f08:	001b0b13          	addi	s6,s6,1
     f0c:	020c8c93          	addi	s9,s9,32
     f10:	d2fb4ae3          	blt	s6,a5,c44 <draw_mesh3+0x110>
     f14:	f25ff06f          	j	e38 <draw_mesh3+0x304>

00000f18 <init_io>:
     f18:	ff010113          	addi	sp,sp,-16
     f1c:	00112623          	sw	ra,12(sp)
     f20:	a54ff0ef          	jal	174 <enable_interrupt>
     f24:	3ff00513          	li	a0,1023
     f28:	04000637          	lui	a2,0x4000
     f2c:	00a62c23          	sw	a0,24(a2) # 4000018 <_stack_end+0x3e6257c>
     f30:	040006b7          	lui	a3,0x4000
     f34:	00a6ae23          	sw	a0,28(a3) # 400001c <_stack_end+0x3e62580>
     f38:	00c12083          	lw	ra,12(sp)
     f3c:	00100593          	li	a1,1
     f40:	04000737          	lui	a4,0x4000
     f44:	0cb72c23          	sw	a1,216(a4) # 40000d8 <_stack_end+0x3e6263c>
     f48:	040007b7          	lui	a5,0x4000
     f4c:	0cb7ae23          	sw	a1,220(a5) # 40000dc <_stack_end+0x3e62640>
     f50:	01010113          	addi	sp,sp,16
     f54:	00008067          	ret

00000f58 <get_btn>:
     f58:	040007b7          	lui	a5,0x4000
     f5c:	0d07a503          	lw	a0,208(a5) # 40000d0 <_stack_end+0x3e62634>
     f60:	00157513          	andi	a0,a0,1
     f64:	00008067          	ret

00000f68 <reset_io>:
     f68:	04000737          	lui	a4,0x4000
     f6c:	3ff00693          	li	a3,1023
     f70:	00d72e23          	sw	a3,28(a4) # 400001c <_stack_end+0x3e62580>
     f74:	040007b7          	lui	a5,0x4000
     f78:	00100713          	li	a4,1
     f7c:	0ce7ae23          	sw	a4,220(a5) # 40000dc <_stack_end+0x3e62640>
     f80:	00008067          	ret

00000f84 <get_sw>:
     f84:	040007b7          	lui	a5,0x4000
     f88:	0107a503          	lw	a0,16(a5) # 4000010 <_stack_end+0x3e62574>
     f8c:	3ff57513          	andi	a0,a0,1023
     f90:	00008067          	ret

00000f94 <set_leds>:
     f94:	3ff57513          	andi	a0,a0,1023
     f98:	040007b7          	lui	a5,0x4000
     f9c:	00a7a023          	sw	a0,0(a5) # 4000000 <_stack_end+0x3e62564>
     fa0:	00008067          	ret

00000fa4 <value_to_segdisplay>:
     fa4:	00900793          	li	a5,9
     fa8:	00a7ee63          	bltu	a5,a0,fc4 <value_to_segdisplay+0x20>
     fac:	0009d7b7          	lui	a5,0x9d
     fb0:	00251513          	slli	a0,a0,0x2
     fb4:	3d478793          	addi	a5,a5,980 # 9d3d4 <CSWTCH.6>
     fb8:	00a787b3          	add	a5,a5,a0
     fbc:	0007a503          	lw	a0,0(a5)
     fc0:	00008067          	ret
     fc4:	0ff00513          	li	a0,255
     fc8:	00008067          	ret

00000fcc <set_displays>:
     fcc:	00900793          	li	a5,9
     fd0:	0ff00713          	li	a4,255
     fd4:	00b7ec63          	bltu	a5,a1,fec <set_displays+0x20>
     fd8:	0009d7b7          	lui	a5,0x9d
     fdc:	00259593          	slli	a1,a1,0x2
     fe0:	3d478793          	addi	a5,a5,980 # 9d3d4 <CSWTCH.6>
     fe4:	00b787b3          	add	a5,a5,a1
     fe8:	0007a703          	lw	a4,0(a5)
     fec:	00500793          	li	a5,5
     ff0:	02a7e263          	bltu	a5,a0,1014 <set_displays+0x48>
     ff4:	0009d7b7          	lui	a5,0x9d
     ff8:	3bc78793          	addi	a5,a5,956 # 9d3bc <wireframe_enable+0x4>
     ffc:	00251513          	slli	a0,a0,0x2
    1000:	00f50533          	add	a0,a0,a5
    1004:	00052783          	lw	a5,0(a0)
    1008:	00078067          	jr	a5
    100c:	040007b7          	lui	a5,0x4000
    1010:	0ae7a023          	sw	a4,160(a5) # 40000a0 <_stack_end+0x3e62604>
    1014:	00008067          	ret
    1018:	040007b7          	lui	a5,0x4000
    101c:	08e7a823          	sw	a4,144(a5) # 4000090 <_stack_end+0x3e625f4>
    1020:	00008067          	ret
    1024:	040007b7          	lui	a5,0x4000
    1028:	04e7a823          	sw	a4,80(a5) # 4000050 <_stack_end+0x3e625b4>
    102c:	00008067          	ret
    1030:	040007b7          	lui	a5,0x4000
    1034:	06e7a023          	sw	a4,96(a5) # 4000060 <_stack_end+0x3e625c4>
    1038:	00008067          	ret
    103c:	040007b7          	lui	a5,0x4000
    1040:	06e7a823          	sw	a4,112(a5) # 4000070 <_stack_end+0x3e625d4>
    1044:	00008067          	ret
    1048:	040007b7          	lui	a5,0x4000
    104c:	08e7a023          	sw	a4,128(a5) # 4000080 <_stack_end+0x3e625e4>
    1050:	00008067          	ret

00001054 <start_timer>:
    1054:	04000737          	lui	a4,0x4000
    1058:	0000c6b7          	lui	a3,0xc
    105c:	00100613          	li	a2,1
    1060:	02c72023          	sw	a2,32(a4) # 4000020 <_stack_end+0x3e62584>
    1064:	040007b7          	lui	a5,0x4000
    1068:	6bf68693          	addi	a3,a3,1727 # c6bf <__global_pointer+0x4b43>
    106c:	02d7a423          	sw	a3,40(a5) # 4000028 <_stack_end+0x3e6258c>
    1070:	04000737          	lui	a4,0x4000
    1074:	02d00693          	li	a3,45
    1078:	02d72623          	sw	a3,44(a4) # 400002c <_stack_end+0x3e62590>
    107c:	040007b7          	lui	a5,0x4000
    1080:	00700713          	li	a4,7
    1084:	02e7a223          	sw	a4,36(a5) # 4000024 <_stack_end+0x3e62588>
    1088:	00008067          	ret

0000108c <get_timer_timeout>:
    108c:	040007b7          	lui	a5,0x4000
    1090:	0207a503          	lw	a0,32(a5) # 4000020 <_stack_end+0x3e62584>
    1094:	00157513          	andi	a0,a0,1
    1098:	00008067          	ret

0000109c <set_pbuffer>:
    109c:	fd010113          	addi	sp,sp,-48
    10a0:	02812423          	sw	s0,40(sp)
    10a4:	02912223          	sw	s1,36(sp)
    10a8:	01312e23          	sw	s3,28(sp)
    10ac:	01412c23          	sw	s4,24(sp)
    10b0:	02112623          	sw	ra,44(sp)
    10b4:	00078a13          	mv	s4,a5
    10b8:	00b12623          	sw	a1,12(sp)
    10bc:	00060413          	mv	s0,a2
    10c0:	00068493          	mv	s1,a3
    10c4:	00070993          	mv	s3,a4
    10c8:	7b1050ef          	jal	7078 <__fixsfsi>
    10cc:	13f00793          	li	a5,319
    10d0:	06a7e463          	bltu	a5,a0,1138 <set_pbuffer+0x9c>
    10d4:	03212023          	sw	s2,32(sp)
    10d8:	00050913          	mv	s2,a0
    10dc:	00c12503          	lw	a0,12(sp)
    10e0:	799050ef          	jal	7078 <__fixsfsi>
    10e4:	0ef00793          	li	a5,239
    10e8:	06a7e663          	bltu	a5,a0,1154 <set_pbuffer+0xb8>
    10ec:	00251693          	slli	a3,a0,0x2
    10f0:	00a686b3          	add	a3,a3,a0
    10f4:	0ff4f493          	zext.b	s1,s1
    10f8:	00669693          	slli	a3,a3,0x6
    10fc:	00849493          	slli	s1,s1,0x8
    1100:	0ff47413          	zext.b	s0,s0
    1104:	0ff9f993          	zext.b	s3,s3
    1108:	012686b3          	add	a3,a3,s2
    110c:	01099993          	slli	s3,s3,0x10
    1110:	00946733          	or	a4,s0,s1
    1114:	000527b7          	lui	a5,0x52
    1118:	3a478793          	addi	a5,a5,932 # 523a4 <pbuffer>
    111c:	00269693          	slli	a3,a3,0x2
    1120:	018a1a13          	slli	s4,s4,0x18
    1124:	01376733          	or	a4,a4,s3
    1128:	00f686b3          	add	a3,a3,a5
    112c:	014767b3          	or	a5,a4,s4
    1130:	00f6a023          	sw	a5,0(a3)
    1134:	02012903          	lw	s2,32(sp)
    1138:	02c12083          	lw	ra,44(sp)
    113c:	02812403          	lw	s0,40(sp)
    1140:	02412483          	lw	s1,36(sp)
    1144:	01c12983          	lw	s3,28(sp)
    1148:	01812a03          	lw	s4,24(sp)
    114c:	03010113          	addi	sp,sp,48
    1150:	00008067          	ret
    1154:	02c12083          	lw	ra,44(sp)
    1158:	02812403          	lw	s0,40(sp)
    115c:	02012903          	lw	s2,32(sp)
    1160:	02412483          	lw	s1,36(sp)
    1164:	01c12983          	lw	s3,28(sp)
    1168:	01812a03          	lw	s4,24(sp)
    116c:	03010113          	addi	sp,sp,48
    1170:	00008067          	ret

00001174 <set_zbuffer>:
    1174:	fe010113          	addi	sp,sp,-32
    1178:	00912a23          	sw	s1,20(sp)
    117c:	00112e23          	sw	ra,28(sp)
    1180:	00b12623          	sw	a1,12(sp)
    1184:	00060493          	mv	s1,a2
    1188:	6f1050ef          	jal	7078 <__fixsfsi>
    118c:	13f00793          	li	a5,319
    1190:	04a7e263          	bltu	a5,a0,11d4 <set_zbuffer+0x60>
    1194:	00812c23          	sw	s0,24(sp)
    1198:	00050413          	mv	s0,a0
    119c:	00c12503          	lw	a0,12(sp)
    11a0:	6d9050ef          	jal	7078 <__fixsfsi>
    11a4:	0ef00793          	li	a5,239
    11a8:	02a7ee63          	bltu	a5,a0,11e4 <set_zbuffer+0x70>
    11ac:	00251793          	slli	a5,a0,0x2
    11b0:	00a787b3          	add	a5,a5,a0
    11b4:	00679793          	slli	a5,a5,0x6
    11b8:	008787b3          	add	a5,a5,s0
    11bc:	00007737          	lui	a4,0x7
    11c0:	00279793          	slli	a5,a5,0x2
    11c4:	3a470713          	addi	a4,a4,932 # 73a4 <zbuffer>
    11c8:	01812403          	lw	s0,24(sp)
    11cc:	00f707b3          	add	a5,a4,a5
    11d0:	0097a023          	sw	s1,0(a5)
    11d4:	01c12083          	lw	ra,28(sp)
    11d8:	01412483          	lw	s1,20(sp)
    11dc:	02010113          	addi	sp,sp,32
    11e0:	00008067          	ret
    11e4:	01812403          	lw	s0,24(sp)
    11e8:	01c12083          	lw	ra,28(sp)
    11ec:	01412483          	lw	s1,20(sp)
    11f0:	02010113          	addi	sp,sp,32
    11f4:	00008067          	ret

000011f8 <clear_pbuffer>:
    11f8:	000527b7          	lui	a5,0x52
    11fc:	3a478793          	addi	a5,a5,932 # 523a4 <pbuffer>
    1200:	fffbd737          	lui	a4,0xfffbd
    1204:	0004b6b7          	lui	a3,0x4b
    1208:	00d786b3          	add	a3,a5,a3
    120c:	5c170713          	addi	a4,a4,1473 # fffbd5c1 <_stack_end+0xffe1fb25>
    1210:	00e7a023          	sw	a4,0(a5)
    1214:	00478793          	addi	a5,a5,4
    1218:	fef69ce3          	bne	a3,a5,1210 <clear_pbuffer+0x18>
    121c:	00008067          	ret

00001220 <clear_zbuffer>:
    1220:	0009e7b7          	lui	a5,0x9e
    1224:	91c7a683          	lw	a3,-1764(a5) # 9d91c <CSWTCH.6+0x548>
    1228:	000077b7          	lui	a5,0x7
    122c:	3a478793          	addi	a5,a5,932 # 73a4 <zbuffer>
    1230:	0004b737          	lui	a4,0x4b
    1234:	00e78733          	add	a4,a5,a4
    1238:	00d7a023          	sw	a3,0(a5)
    123c:	00478793          	addi	a5,a5,4
    1240:	fee79ce3          	bne	a5,a4,1238 <clear_zbuffer+0x18>
    1244:	00008067          	ret

00001248 <update_VGA>:
    1248:	fd010113          	addi	sp,sp,-48
    124c:	0009e7b7          	lui	a5,0x9e
    1250:	03212023          	sw	s2,32(sp)
    1254:	9087a903          	lw	s2,-1784(a5) # 9d908 <CSWTCH.6+0x534>
    1258:	0009e7b7          	lui	a5,0x9e
    125c:	01312e23          	sw	s3,28(sp)
    1260:	9187a983          	lw	s3,-1768(a5) # 9d918 <CSWTCH.6+0x544>
    1264:	01412c23          	sw	s4,24(sp)
    1268:	01512a23          	sw	s5,20(sp)
    126c:	01612823          	sw	s6,16(sp)
    1270:	01712623          	sw	s7,12(sp)
    1274:	01912223          	sw	s9,4(sp)
    1278:	fffedbb7          	lui	s7,0xfffed
    127c:	08013cb7          	lui	s9,0x8013
    1280:	08013b37          	lui	s6,0x8013
    1284:	00007ab7          	lui	s5,0x7
    1288:	00052a37          	lui	s4,0x52
    128c:	01a12023          	sw	s10,0(sp)
    1290:	02112623          	sw	ra,44(sp)
    1294:	02812423          	sw	s0,40(sp)
    1298:	02912223          	sw	s1,36(sp)
    129c:	01812423          	sw	s8,8(sp)
    12a0:	3a4a8a93          	addi	s5,s5,932 # 73a4 <zbuffer>
    12a4:	3a4a0a13          	addi	s4,s4,932 # 523a4 <pbuffer>
    12a8:	c00c8c93          	addi	s9,s9,-1024 # 8012c00 <_stack_end+0x7e75164>
    12ac:	0009dd37          	lui	s10,0x9d
    12b0:	400b8b93          	addi	s7,s7,1024 # fffed400 <_stack_end+0xffe4f964>
    12b4:	d40b0b13          	addi	s6,s6,-704 # 8012d40 <_stack_end+0x7e752a4>
    12b8:	017c8433          	add	s0,s9,s7
    12bc:	000a0493          	mv	s1,s4
    12c0:	000a8c13          	mv	s8,s5
    12c4:	0300006f          	j	12f4 <update_VGA+0xac>
    12c8:	000c2503          	lw	a0,0(s8)
    12cc:	14040413          	addi	s0,s0,320
    12d0:	500c0c13          	addi	s8,s8,1280
    12d4:	24d050ef          	jal	6d20 <__addsf3>
    12d8:	00098593          	mv	a1,s3
    12dc:	71d050ef          	jal	71f8 <__mulsf3>
    12e0:	599050ef          	jal	7078 <__fixsfsi>
    12e4:	0ff57513          	zext.b	a0,a0
    12e8:	eca40023          	sb	a0,-320(s0)
    12ec:	50048493          	addi	s1,s1,1280
    12f0:	048c8463          	beq	s9,s0,1338 <update_VGA+0xf0>
    12f4:	3b4d2783          	lw	a5,948(s10) # 9d3b4 <zbuffer_enable>
    12f8:	00090593          	mv	a1,s2
    12fc:	fc0796e3          	bnez	a5,12c8 <update_VGA+0x80>
    1300:	0004c783          	lbu	a5,0(s1)
    1304:	0024c683          	lbu	a3,2(s1)
    1308:	0014c703          	lbu	a4,1(s1)
    130c:	fe07f793          	andi	a5,a5,-32
    1310:	4066d693          	srai	a3,a3,0x6
    1314:	40575713          	srai	a4,a4,0x5
    1318:	00d7e7b3          	or	a5,a5,a3
    131c:	00271713          	slli	a4,a4,0x2
    1320:	00e7e7b3          	or	a5,a5,a4
    1324:	00f40023          	sb	a5,0(s0)
    1328:	14040413          	addi	s0,s0,320
    132c:	500c0c13          	addi	s8,s8,1280
    1330:	50048493          	addi	s1,s1,1280
    1334:	fc8c90e3          	bne	s9,s0,12f4 <update_VGA+0xac>
    1338:	001c8c93          	addi	s9,s9,1
    133c:	004a8a93          	addi	s5,s5,4
    1340:	004a0a13          	addi	s4,s4,4
    1344:	f76c9ae3          	bne	s9,s6,12b8 <update_VGA+0x70>
    1348:	02c12083          	lw	ra,44(sp)
    134c:	02812403          	lw	s0,40(sp)
    1350:	02412483          	lw	s1,36(sp)
    1354:	02012903          	lw	s2,32(sp)
    1358:	01c12983          	lw	s3,28(sp)
    135c:	01812a03          	lw	s4,24(sp)
    1360:	01412a83          	lw	s5,20(sp)
    1364:	01012b03          	lw	s6,16(sp)
    1368:	00c12b83          	lw	s7,12(sp)
    136c:	00812c03          	lw	s8,8(sp)
    1370:	00412c83          	lw	s9,4(sp)
    1374:	00012d03          	lw	s10,0(sp)
    1378:	03010113          	addi	sp,sp,48
    137c:	00008067          	ret

00001380 <create_scene>:
    1380:	00052023          	sw	zero,0(a0)
    1384:	00008067          	ret

00001388 <rotate_scene>:
    1388:	00052783          	lw	a5,0(a0)
    138c:	10f05e63          	blez	a5,14a8 <rotate_scene+0x120>
    1390:	fc010113          	addi	sp,sp,-64
    1394:	03612023          	sw	s6,32(sp)
    1398:	00001b37          	lui	s6,0x1
    139c:	02812c23          	sw	s0,56(sp)
    13a0:	02912a23          	sw	s1,52(sp)
    13a4:	03212823          	sw	s2,48(sp)
    13a8:	03312623          	sw	s3,44(sp)
    13ac:	03412423          	sw	s4,40(sp)
    13b0:	03512223          	sw	s5,36(sp)
    13b4:	01712e23          	sw	s7,28(sp)
    13b8:	02112e23          	sw	ra,60(sp)
    13bc:	00050b93          	mv	s7,a0
    13c0:	00058993          	mv	s3,a1
    13c4:	00060a13          	mv	s4,a2
    13c8:	00068a93          	mv	s5,a3
    13cc:	00070413          	mv	s0,a4
    13d0:	00450493          	addi	s1,a0,4
    13d4:	00000913          	li	s2,0
    13d8:	2c8b0b13          	addi	s6,s6,712 # 12c8 <update_VGA+0x80>
    13dc:	00042803          	lw	a6,0(s0)
    13e0:	00442683          	lw	a3,4(s0)
    13e4:	00842703          	lw	a4,8(s0)
    13e8:	00c42783          	lw	a5,12(s0)
    13ec:	00048513          	mv	a0,s1
    13f0:	00010613          	mv	a2,sp
    13f4:	00098593          	mv	a1,s3
    13f8:	01012023          	sw	a6,0(sp)
    13fc:	00d12223          	sw	a3,4(sp)
    1400:	00e12423          	sw	a4,8(sp)
    1404:	00f12623          	sw	a5,12(sp)
    1408:	5cd040ef          	jal	61d4 <rotate_x_mesh4>
    140c:	00042803          	lw	a6,0(s0)
    1410:	00442683          	lw	a3,4(s0)
    1414:	00842703          	lw	a4,8(s0)
    1418:	00c42783          	lw	a5,12(s0)
    141c:	00048513          	mv	a0,s1
    1420:	00010613          	mv	a2,sp
    1424:	000a0593          	mv	a1,s4
    1428:	01012023          	sw	a6,0(sp)
    142c:	00d12223          	sw	a3,4(sp)
    1430:	00e12423          	sw	a4,8(sp)
    1434:	00f12623          	sw	a5,12(sp)
    1438:	751040ef          	jal	6388 <rotate_y_mesh4>
    143c:	00c42783          	lw	a5,12(s0)
    1440:	00042883          	lw	a7,0(s0)
    1444:	00442803          	lw	a6,4(s0)
    1448:	00842703          	lw	a4,8(s0)
    144c:	00048513          	mv	a0,s1
    1450:	00010613          	mv	a2,sp
    1454:	000a8593          	mv	a1,s5
    1458:	00f12623          	sw	a5,12(sp)
    145c:	01112023          	sw	a7,0(sp)
    1460:	01012223          	sw	a6,4(sp)
    1464:	00e12423          	sw	a4,8(sp)
    1468:	0d4050ef          	jal	653c <rotate_z_mesh4>
    146c:	000ba783          	lw	a5,0(s7)
    1470:	00190913          	addi	s2,s2,1
    1474:	016484b3          	add	s1,s1,s6
    1478:	f6f942e3          	blt	s2,a5,13dc <rotate_scene+0x54>
    147c:	03c12083          	lw	ra,60(sp)
    1480:	03812403          	lw	s0,56(sp)
    1484:	03412483          	lw	s1,52(sp)
    1488:	03012903          	lw	s2,48(sp)
    148c:	02c12983          	lw	s3,44(sp)
    1490:	02812a03          	lw	s4,40(sp)
    1494:	02412a83          	lw	s5,36(sp)
    1498:	02012b03          	lw	s6,32(sp)
    149c:	01c12b83          	lw	s7,28(sp)
    14a0:	04010113          	addi	sp,sp,64
    14a4:	00008067          	ret
    14a8:	00008067          	ret

000014ac <translate_scene>:
    14ac:	00052783          	lw	a5,0(a0)
    14b0:	0af05263          	blez	a5,1554 <translate_scene+0xa8>
    14b4:	fe010113          	addi	sp,sp,-32
    14b8:	01612023          	sw	s6,0(sp)
    14bc:	00001b37          	lui	s6,0x1
    14c0:	00812c23          	sw	s0,24(sp)
    14c4:	00912a23          	sw	s1,20(sp)
    14c8:	01212823          	sw	s2,16(sp)
    14cc:	01312623          	sw	s3,12(sp)
    14d0:	01412423          	sw	s4,8(sp)
    14d4:	01512223          	sw	s5,4(sp)
    14d8:	00112e23          	sw	ra,28(sp)
    14dc:	00050913          	mv	s2,a0
    14e0:	00058993          	mv	s3,a1
    14e4:	00060a13          	mv	s4,a2
    14e8:	00068a93          	mv	s5,a3
    14ec:	00450413          	addi	s0,a0,4
    14f0:	00000493          	li	s1,0
    14f4:	2c8b0b13          	addi	s6,s6,712 # 12c8 <update_VGA+0x80>
    14f8:	00040513          	mv	a0,s0
    14fc:	00098593          	mv	a1,s3
    1500:	1f0050ef          	jal	66f0 <translate_x_mesh4>
    1504:	00040513          	mv	a0,s0
    1508:	000a0593          	mv	a1,s4
    150c:	2ec050ef          	jal	67f8 <translate_y_mesh4>
    1510:	00040513          	mv	a0,s0
    1514:	000a8593          	mv	a1,s5
    1518:	3e8050ef          	jal	6900 <translate_z_mesh4>
    151c:	00092783          	lw	a5,0(s2)
    1520:	00148493          	addi	s1,s1,1
    1524:	01640433          	add	s0,s0,s6
    1528:	fcf4c8e3          	blt	s1,a5,14f8 <translate_scene+0x4c>
    152c:	01c12083          	lw	ra,28(sp)
    1530:	01812403          	lw	s0,24(sp)
    1534:	01412483          	lw	s1,20(sp)
    1538:	01012903          	lw	s2,16(sp)
    153c:	00c12983          	lw	s3,12(sp)
    1540:	00812a03          	lw	s4,8(sp)
    1544:	00412a83          	lw	s5,4(sp)
    1548:	00012b03          	lw	s6,0(sp)
    154c:	02010113          	addi	sp,sp,32
    1550:	00008067          	ret
    1554:	00008067          	ret

00001558 <add_to_scene>:
    1558:	0005a683          	lw	a3,0(a1)
    155c:	000017b7          	lui	a5,0x1
    1560:	2c878793          	addi	a5,a5,712 # 12c8 <update_VGA+0x80>
    1564:	02f687b3          	mul	a5,a3,a5
    1568:	00001737          	lui	a4,0x1
    156c:	00168693          	addi	a3,a3,1 # 4b001 <__global_pointer+0x43485>
    1570:	2c070713          	addi	a4,a4,704 # 12c0 <update_VGA+0x78>
    1574:	00d5a023          	sw	a3,0(a1)
    1578:	00e50733          	add	a4,a0,a4
    157c:	00f585b3          	add	a1,a1,a5
    1580:	00458593          	addi	a1,a1,4
    1584:	00052803          	lw	a6,0(a0)
    1588:	00452603          	lw	a2,4(a0)
    158c:	00852683          	lw	a3,8(a0)
    1590:	00c52783          	lw	a5,12(a0)
    1594:	0105a023          	sw	a6,0(a1)
    1598:	00c5a223          	sw	a2,4(a1)
    159c:	00d5a423          	sw	a3,8(a1)
    15a0:	00f5a623          	sw	a5,12(a1)
    15a4:	01050513          	addi	a0,a0,16
    15a8:	01058593          	addi	a1,a1,16
    15ac:	fce51ce3          	bne	a0,a4,1584 <add_to_scene+0x2c>
    15b0:	00052703          	lw	a4,0(a0)
    15b4:	00452783          	lw	a5,4(a0)
    15b8:	00e5a023          	sw	a4,0(a1)
    15bc:	00f5a223          	sw	a5,4(a1)
    15c0:	00008067          	ret

000015c4 <scene_to_mesh4>:
    15c4:	ffffd2b7          	lui	t0,0xffffd
    15c8:	81010113          	addi	sp,sp,-2032
    15cc:	f4028293          	addi	t0,t0,-192 # ffffcf40 <_stack_end+0xffe5f4a4>
    15d0:	7e912223          	sw	s1,2020(sp)
    15d4:	7d412c23          	sw	s4,2008(sp)
    15d8:	7e112623          	sw	ra,2028(sp)
    15dc:	7e812423          	sw	s0,2024(sp)
    15e0:	7f212023          	sw	s2,2016(sp)
    15e4:	7d312e23          	sw	s3,2012(sp)
    15e8:	7d512a23          	sw	s5,2004(sp)
    15ec:	00058a13          	mv	s4,a1
    15f0:	00510133          	add	sp,sp,t0
    15f4:	00000613          	li	a2,0
    15f8:	00000593          	li	a1,0
    15fc:	00050493          	mv	s1,a0
    1600:	101040ef          	jal	5f00 <create_mesh4>
    1604:	000a2783          	lw	a5,0(s4)
    1608:	1af05663          	blez	a5,17b4 <scene_to_mesh4+0x1f0>
    160c:	00004637          	lui	a2,0x4
    1610:	fffff6b7          	lui	a3,0xfffff
    1614:	87060593          	addi	a1,a2,-1936 # 3870 <vec2_add+0x50>
    1618:	00d585b3          	add	a1,a1,a3
    161c:	02010693          	addi	a3,sp,32
    1620:	00d586b3          	add	a3,a1,a3
    1624:	00d12623          	sw	a3,12(sp)
    1628:	87060593          	addi	a1,a2,-1936
    162c:	ffffe6b7          	lui	a3,0xffffe
    1630:	00d585b3          	add	a1,a1,a3
    1634:	02010693          	addi	a3,sp,32
    1638:	00d586b3          	add	a3,a1,a3
    163c:	00d12e23          	sw	a3,28(sp)
    1640:	87060593          	addi	a1,a2,-1936
    1644:	ffffc6b7          	lui	a3,0xffffc
    1648:	00d585b3          	add	a1,a1,a3
    164c:	02010693          	addi	a3,sp,32
    1650:	00d586b3          	add	a3,a1,a3
    1654:	ffffc737          	lui	a4,0xffffc
    1658:	79070713          	addi	a4,a4,1936 # ffffc790 <_stack_end+0xffe5ecf4>
    165c:	00d12c23          	sw	a3,24(sp)
    1660:	00060693          	mv	a3,a2
    1664:	87060613          	addi	a2,a2,-1936
    1668:	00e60633          	add	a2,a2,a4
    166c:	02010713          	addi	a4,sp,32
    1670:	00e60733          	add	a4,a2,a4
    1674:	ffffe7b7          	lui	a5,0xffffe
    1678:	a6078793          	addi	a5,a5,-1440 # ffffda60 <_stack_end+0xffe5ffc4>
    167c:	00e12823          	sw	a4,16(sp)
    1680:	87068713          	addi	a4,a3,-1936 # ffffb870 <_stack_end+0xffe5ddd4>
    1684:	00f70733          	add	a4,a4,a5
    1688:	00001ab7          	lui	s5,0x1
    168c:	02010793          	addi	a5,sp,32
    1690:	2c0a8a93          	addi	s5,s5,704 # 12c0 <update_VGA+0x78>
    1694:	00001937          	lui	s2,0x1
    1698:	00f707b3          	add	a5,a4,a5
    169c:	00000413          	li	s0,0
    16a0:	015489b3          	add	s3,s1,s5
    16a4:	2c890913          	addi	s2,s2,712 # 12c8 <update_VGA+0x80>
    16a8:	00f12a23          	sw	a5,20(sp)
    16ac:	00c12783          	lw	a5,12(sp)
    16b0:	00048713          	mv	a4,s1
    16b4:	d3878793          	addi	a5,a5,-712
    16b8:	00072503          	lw	a0,0(a4)
    16bc:	00472583          	lw	a1,4(a4)
    16c0:	00872603          	lw	a2,8(a4)
    16c4:	00c72683          	lw	a3,12(a4)
    16c8:	00a7a023          	sw	a0,0(a5)
    16cc:	00b7a223          	sw	a1,4(a5)
    16d0:	00c7a423          	sw	a2,8(a5)
    16d4:	00d7a623          	sw	a3,12(a5)
    16d8:	01070713          	addi	a4,a4,16
    16dc:	01078793          	addi	a5,a5,16
    16e0:	fd371ce3          	bne	a4,s3,16b8 <scene_to_mesh4+0xf4>
    16e4:	0009a683          	lw	a3,0(s3)
    16e8:	0049a603          	lw	a2,4(s3)
    16ec:	00c12703          	lw	a4,12(sp)
    16f0:	00d7a023          	sw	a3,0(a5)
    16f4:	00c7a223          	sw	a2,4(a5)
    16f8:	01c12783          	lw	a5,28(sp)
    16fc:	d3870713          	addi	a4,a4,-712
    1700:	01570833          	add	a6,a4,s5
    1704:	a6078693          	addi	a3,a5,-1440
    1708:	00072503          	lw	a0,0(a4)
    170c:	00472583          	lw	a1,4(a4)
    1710:	00872603          	lw	a2,8(a4)
    1714:	00c72783          	lw	a5,12(a4)
    1718:	00a6a023          	sw	a0,0(a3)
    171c:	00b6a223          	sw	a1,4(a3)
    1720:	00c6a423          	sw	a2,8(a3)
    1724:	00f6a623          	sw	a5,12(a3)
    1728:	01070713          	addi	a4,a4,16
    172c:	01068693          	addi	a3,a3,16
    1730:	fd071ce3          	bne	a4,a6,1708 <scene_to_mesh4+0x144>
    1734:	032407b3          	mul	a5,s0,s2
    1738:	00072583          	lw	a1,0(a4)
    173c:	00472603          	lw	a2,4(a4)
    1740:	01812703          	lw	a4,24(sp)
    1744:	00b6a023          	sw	a1,0(a3)
    1748:	00c6a223          	sw	a2,4(a3)
    174c:	79070713          	addi	a4,a4,1936
    1750:	00fa07b3          	add	a5,s4,a5
    1754:	00478793          	addi	a5,a5,4
    1758:	01578833          	add	a6,a5,s5
    175c:	0047a503          	lw	a0,4(a5)
    1760:	0087a583          	lw	a1,8(a5)
    1764:	00c7a683          	lw	a3,12(a5)
    1768:	0007a603          	lw	a2,0(a5)
    176c:	00a72223          	sw	a0,4(a4)
    1770:	00b72423          	sw	a1,8(a4)
    1774:	00c72023          	sw	a2,0(a4)
    1778:	00d72623          	sw	a3,12(a4)
    177c:	01078793          	addi	a5,a5,16
    1780:	01070713          	addi	a4,a4,16
    1784:	fd079ce3          	bne	a5,a6,175c <scene_to_mesh4+0x198>
    1788:	0047a683          	lw	a3,4(a5)
    178c:	0007a783          	lw	a5,0(a5)
    1790:	01012603          	lw	a2,16(sp)
    1794:	01412583          	lw	a1,20(sp)
    1798:	00048513          	mv	a0,s1
    179c:	00f72023          	sw	a5,0(a4)
    17a0:	00d72223          	sw	a3,4(a4)
    17a4:	768040ef          	jal	5f0c <merge_mesh4>
    17a8:	000a2783          	lw	a5,0(s4)
    17ac:	00140413          	addi	s0,s0,1
    17b0:	eef44ee3          	blt	s0,a5,16ac <scene_to_mesh4+0xe8>
    17b4:	000032b7          	lui	t0,0x3
    17b8:	0c028293          	addi	t0,t0,192 # 30c0 <main+0x2f8>
    17bc:	00510133          	add	sp,sp,t0
    17c0:	7ec12083          	lw	ra,2028(sp)
    17c4:	00048513          	mv	a0,s1
    17c8:	7e812403          	lw	s0,2024(sp)
    17cc:	7e412483          	lw	s1,2020(sp)
    17d0:	7e012903          	lw	s2,2016(sp)
    17d4:	7dc12983          	lw	s3,2012(sp)
    17d8:	7d812a03          	lw	s4,2008(sp)
    17dc:	7d412a83          	lw	s5,2004(sp)
    17e0:	7f010113          	addi	sp,sp,2032
    17e4:	00008067          	ret

000017e8 <create_grass_block>:
    17e8:	fd010113          	addi	sp,sp,-48
    17ec:	02912223          	sw	s1,36(sp)
    17f0:	03212023          	sw	s2,32(sp)
    17f4:	00060493          	mv	s1,a2
    17f8:	00058913          	mv	s2,a1
    17fc:	00c00613          	li	a2,12
    1800:	00800593          	li	a1,8
    1804:	02112623          	sw	ra,44(sp)
    1808:	02812423          	sw	s0,40(sp)
    180c:	01312e23          	sw	s3,28(sp)
    1810:	00050413          	mv	s0,a0
    1814:	01412c23          	sw	s4,24(sp)
    1818:	01512a23          	sw	s5,20(sp)
    181c:	01612823          	sw	s6,16(sp)
    1820:	01712623          	sw	s7,12(sp)
    1824:	01812423          	sw	s8,8(sp)
    1828:	6d8040ef          	jal	5f00 <create_mesh4>
    182c:	00092983          	lw	s3,0(s2)
    1830:	00492b83          	lw	s7,4(s2)
    1834:	00048593          	mv	a1,s1
    1838:	00098513          	mv	a0,s3
    183c:	4dc050ef          	jal	6d18 <__subsf3>
    1840:	00892b03          	lw	s6,8(s2)
    1844:	00048593          	mv	a1,s1
    1848:	00050913          	mv	s2,a0
    184c:	000b8513          	mv	a0,s7
    1850:	4c8050ef          	jal	6d18 <__subsf3>
    1854:	00050a13          	mv	s4,a0
    1858:	00048593          	mv	a1,s1
    185c:	000b0513          	mv	a0,s6
    1860:	4b8050ef          	jal	6d18 <__subsf3>
    1864:	00050a93          	mv	s5,a0
    1868:	00098593          	mv	a1,s3
    186c:	00048513          	mv	a0,s1
    1870:	4b0050ef          	jal	6d20 <__addsf3>
    1874:	00050993          	mv	s3,a0
    1878:	000b8593          	mv	a1,s7
    187c:	00048513          	mv	a0,s1
    1880:	4a0050ef          	jal	6d20 <__addsf3>
    1884:	00050793          	mv	a5,a0
    1888:	000b0593          	mv	a1,s6
    188c:	00048513          	mv	a0,s1
    1890:	00078493          	mv	s1,a5
    1894:	48c050ef          	jal	6d20 <__addsf3>
    1898:	0009d7b7          	lui	a5,0x9d
    189c:	3fc78793          	addi	a5,a5,1020 # 9d3fc <CSWTCH.6+0x28>
    18a0:	0047ab83          	lw	s7,4(a5)
    18a4:	0087ab03          	lw	s6,8(a5)
    18a8:	00c7a383          	lw	t2,12(a5)
    18ac:	0107a283          	lw	t0,16(a5)
    18b0:	0147af83          	lw	t6,20(a5)
    18b4:	0187af03          	lw	t5,24(a5)
    18b8:	0007ac03          	lw	s8,0(a5)
    18bc:	01c7ae83          	lw	t4,28(a5)
    18c0:	0207ae03          	lw	t3,32(a5)
    18c4:	0247a303          	lw	t1,36(a5)
    18c8:	65842423          	sw	s8,1608(s0)
    18cc:	65742623          	sw	s7,1612(s0)
    18d0:	65642823          	sw	s6,1616(s0)
    18d4:	64742a23          	sw	t2,1620(s0)
    18d8:	64542c23          	sw	t0,1624(s0)
    18dc:	65f42e23          	sw	t6,1628(s0)
    18e0:	67e42023          	sw	t5,1632(s0)
    18e4:	00050713          	mv	a4,a0
    18e8:	0287a883          	lw	a7,40(a5)
    18ec:	02c7a803          	lw	a6,44(a5)
    18f0:	0307a503          	lw	a0,48(a5)
    18f4:	0347a583          	lw	a1,52(a5)
    18f8:	0387a603          	lw	a2,56(a5)
    18fc:	03c7a683          	lw	a3,60(a5)
    1900:	67d42223          	sw	t4,1636(s0)
    1904:	0447ab83          	lw	s7,68(a5)
    1908:	0487ab03          	lw	s6,72(a5)
    190c:	04c7a383          	lw	t2,76(a5)
    1910:	0507a283          	lw	t0,80(a5)
    1914:	0547af83          	lw	t6,84(a5)
    1918:	0587af03          	lw	t5,88(a5)
    191c:	05c7ae83          	lw	t4,92(a5)
    1920:	0407ac03          	lw	s8,64(a5)
    1924:	67c42423          	sw	t3,1640(s0)
    1928:	0607ae03          	lw	t3,96(a5)
    192c:	66642623          	sw	t1,1644(s0)
    1930:	0647a303          	lw	t1,100(a5)
    1934:	67142823          	sw	a7,1648(s0)
    1938:	67042a23          	sw	a6,1652(s0)
    193c:	0687a883          	lw	a7,104(a5)
    1940:	66a42c23          	sw	a0,1656(s0)
    1944:	66b42e23          	sw	a1,1660(s0)
    1948:	68c42023          	sw	a2,1664(s0)
    194c:	68d42223          	sw	a3,1668(s0)
    1950:	69842423          	sw	s8,1672(s0)
    1954:	69742623          	sw	s7,1676(s0)
    1958:	69642823          	sw	s6,1680(s0)
    195c:	68742a23          	sw	t2,1684(s0)
    1960:	68542c23          	sw	t0,1688(s0)
    1964:	69f42e23          	sw	t6,1692(s0)
    1968:	6be42023          	sw	t5,1696(s0)
    196c:	6bd42223          	sw	t4,1700(s0)
    1970:	06c7a803          	lw	a6,108(a5)
    1974:	0707a503          	lw	a0,112(a5)
    1978:	0747a583          	lw	a1,116(a5)
    197c:	0787a603          	lw	a2,120(a5)
    1980:	07c7a683          	lw	a3,124(a5)
    1984:	6bc42423          	sw	t3,1704(s0)
    1988:	0847ab83          	lw	s7,132(a5)
    198c:	0887ab03          	lw	s6,136(a5)
    1990:	08c7a383          	lw	t2,140(a5)
    1994:	0907a283          	lw	t0,144(a5)
    1998:	0947af83          	lw	t6,148(a5)
    199c:	0987af03          	lw	t5,152(a5)
    19a0:	09c7ae83          	lw	t4,156(a5)
    19a4:	0a07ae03          	lw	t3,160(a5)
    19a8:	0807ac03          	lw	s8,128(a5)
    19ac:	6a642623          	sw	t1,1708(s0)
    19b0:	0a47a303          	lw	t1,164(a5)
    19b4:	6b142823          	sw	a7,1712(s0)
    19b8:	0a87a883          	lw	a7,168(a5)
    19bc:	6b042a23          	sw	a6,1716(s0)
    19c0:	6aa42c23          	sw	a0,1720(s0)
    19c4:	0ac7a803          	lw	a6,172(a5)
    19c8:	0b07a503          	lw	a0,176(a5)
    19cc:	6ab42e23          	sw	a1,1724(s0)
    19d0:	6cc42023          	sw	a2,1728(s0)
    19d4:	6cd42223          	sw	a3,1732(s0)
    19d8:	6d842423          	sw	s8,1736(s0)
    19dc:	6d742623          	sw	s7,1740(s0)
    19e0:	6d642823          	sw	s6,1744(s0)
    19e4:	6c742a23          	sw	t2,1748(s0)
    19e8:	6c542c23          	sw	t0,1752(s0)
    19ec:	6df42e23          	sw	t6,1756(s0)
    19f0:	6fe42023          	sw	t5,1760(s0)
    19f4:	6fd42223          	sw	t4,1764(s0)
    19f8:	6fc42423          	sw	t3,1768(s0)
    19fc:	0b47a583          	lw	a1,180(a5)
    1a00:	0b87a603          	lw	a2,184(a5)
    1a04:	0bc7a683          	lw	a3,188(a5)
    1a08:	6e642623          	sw	t1,1772(s0)
    1a0c:	0c47ab83          	lw	s7,196(a5)
    1a10:	0c87ab03          	lw	s6,200(a5)
    1a14:	0cc7a383          	lw	t2,204(a5)
    1a18:	0d07a283          	lw	t0,208(a5)
    1a1c:	0d47af83          	lw	t6,212(a5)
    1a20:	0d87af03          	lw	t5,216(a5)
    1a24:	0dc7ae83          	lw	t4,220(a5)
    1a28:	0e07ae03          	lw	t3,224(a5)
    1a2c:	0e47a303          	lw	t1,228(a5)
    1a30:	0c07ac03          	lw	s8,192(a5)
    1a34:	6f142823          	sw	a7,1776(s0)
    1a38:	0e87a883          	lw	a7,232(a5)
    1a3c:	6f042a23          	sw	a6,1780(s0)
    1a40:	6ea42c23          	sw	a0,1784(s0)
    1a44:	0ec7a803          	lw	a6,236(a5)
    1a48:	0f07a503          	lw	a0,240(a5)
    1a4c:	6eb42e23          	sw	a1,1788(s0)
    1a50:	70c42023          	sw	a2,1792(s0)
    1a54:	0f47a583          	lw	a1,244(a5)
    1a58:	0f87a603          	lw	a2,248(a5)
    1a5c:	70d42223          	sw	a3,1796(s0)
    1a60:	71842423          	sw	s8,1800(s0)
    1a64:	0fc7a683          	lw	a3,252(a5)
    1a68:	71742623          	sw	s7,1804(s0)
    1a6c:	71642823          	sw	s6,1808(s0)
    1a70:	70742a23          	sw	t2,1812(s0)
    1a74:	70542c23          	sw	t0,1816(s0)
    1a78:	71f42e23          	sw	t6,1820(s0)
    1a7c:	73e42023          	sw	t5,1824(s0)
    1a80:	73d42223          	sw	t4,1828(s0)
    1a84:	73c42423          	sw	t3,1832(s0)
    1a88:	72642623          	sw	t1,1836(s0)
    1a8c:	73142823          	sw	a7,1840(s0)
    1a90:	1047ab83          	lw	s7,260(a5)
    1a94:	1087ab03          	lw	s6,264(a5)
    1a98:	10c7a383          	lw	t2,268(a5)
    1a9c:	1107a283          	lw	t0,272(a5)
    1aa0:	1147af83          	lw	t6,276(a5)
    1aa4:	1187af03          	lw	t5,280(a5)
    1aa8:	11c7ae83          	lw	t4,284(a5)
    1aac:	1207ae03          	lw	t3,288(a5)
    1ab0:	1247a303          	lw	t1,292(a5)
    1ab4:	1287a883          	lw	a7,296(a5)
    1ab8:	1007ac03          	lw	s8,256(a5)
    1abc:	73042a23          	sw	a6,1844(s0)
    1ac0:	72a42c23          	sw	a0,1848(s0)
    1ac4:	12c7a803          	lw	a6,300(a5)
    1ac8:	1307a503          	lw	a0,304(a5)
    1acc:	72b42e23          	sw	a1,1852(s0)
    1ad0:	74c42023          	sw	a2,1856(s0)
    1ad4:	1347a583          	lw	a1,308(a5)
    1ad8:	1387a603          	lw	a2,312(a5)
    1adc:	74d42223          	sw	a3,1860(s0)
    1ae0:	13c7a683          	lw	a3,316(a5)
    1ae4:	75842423          	sw	s8,1864(s0)
    1ae8:	75742623          	sw	s7,1868(s0)
    1aec:	75642823          	sw	s6,1872(s0)
    1af0:	74742a23          	sw	t2,1876(s0)
    1af4:	74542c23          	sw	t0,1880(s0)
    1af8:	75f42e23          	sw	t6,1884(s0)
    1afc:	77e42023          	sw	t5,1888(s0)
    1b00:	77d42223          	sw	t4,1892(s0)
    1b04:	77c42423          	sw	t3,1896(s0)
    1b08:	76642623          	sw	t1,1900(s0)
    1b0c:	77142823          	sw	a7,1904(s0)
    1b10:	77042a23          	sw	a6,1908(s0)
    1b14:	1407ab83          	lw	s7,320(a5)
    1b18:	1447ab03          	lw	s6,324(a5)
    1b1c:	1487a383          	lw	t2,328(a5)
    1b20:	14c7a283          	lw	t0,332(a5)
    1b24:	1507af83          	lw	t6,336(a5)
    1b28:	1547af03          	lw	t5,340(a5)
    1b2c:	1587ae83          	lw	t4,344(a5)
    1b30:	15c7ae03          	lw	t3,348(a5)
    1b34:	1607a303          	lw	t1,352(a5)
    1b38:	1647a883          	lw	a7,356(a5)
    1b3c:	1687a803          	lw	a6,360(a5)
    1b40:	76a42c23          	sw	a0,1912(s0)
    1b44:	16c7a503          	lw	a0,364(a5)
    1b48:	76b42e23          	sw	a1,1916(s0)
    1b4c:	78c42023          	sw	a2,1920(s0)
    1b50:	78d42223          	sw	a3,1924(s0)
    1b54:	1747a603          	lw	a2,372(a5)
    1b58:	1787a683          	lw	a3,376(a5)
    1b5c:	1707a583          	lw	a1,368(a5)
    1b60:	17c7a783          	lw	a5,380(a5)
    1b64:	79742423          	sw	s7,1928(s0)
    1b68:	79642623          	sw	s6,1932(s0)
    1b6c:	7aa42a23          	sw	a0,1972(s0)
    1b70:	78742823          	sw	t2,1936(s0)
    1b74:	78542a23          	sw	t0,1940(s0)
    1b78:	79f42c23          	sw	t6,1944(s0)
    1b7c:	79e42e23          	sw	t5,1948(s0)
    1b80:	7bd42023          	sw	t4,1952(s0)
    1b84:	7bc42223          	sw	t3,1956(s0)
    1b88:	7a642423          	sw	t1,1960(s0)
    1b8c:	7b142623          	sw	a7,1964(s0)
    1b90:	7b042823          	sw	a6,1968(s0)
    1b94:	7ab42c23          	sw	a1,1976(s0)
    1b98:	7cf42223          	sw	a5,1988(s0)
    1b9c:	0009e7b7          	lui	a5,0x9e
    1ba0:	9087a783          	lw	a5,-1784(a5) # 9d908 <CSWTCH.6+0x534>
    1ba4:	01242423          	sw	s2,8(s0)
    1ba8:	01442623          	sw	s4,12(s0)
    1bac:	01542823          	sw	s5,16(s0)
    1bb0:	01342c23          	sw	s3,24(s0)
    1bb4:	01442e23          	sw	s4,28(s0)
    1bb8:	03542023          	sw	s5,32(s0)
    1bbc:	03342423          	sw	s3,40(s0)
    1bc0:	02942623          	sw	s1,44(s0)
    1bc4:	03542823          	sw	s5,48(s0)
    1bc8:	03242c23          	sw	s2,56(s0)
    1bcc:	02942e23          	sw	s1,60(s0)
    1bd0:	05542023          	sw	s5,64(s0)
    1bd4:	05242423          	sw	s2,72(s0)
    1bd8:	05442623          	sw	s4,76(s0)
    1bdc:	05342c23          	sw	s3,88(s0)
    1be0:	05442e23          	sw	s4,92(s0)
    1be4:	07342423          	sw	s3,104(s0)
    1be8:	06942623          	sw	s1,108(s0)
    1bec:	7ac42e23          	sw	a2,1980(s0)
    1bf0:	7cd42023          	sw	a3,1984(s0)
    1bf4:	00f42a23          	sw	a5,20(s0)
    1bf8:	02f42223          	sw	a5,36(s0)
    1bfc:	02f42a23          	sw	a5,52(s0)
    1c00:	04f42223          	sw	a5,68(s0)
    1c04:	04e42823          	sw	a4,80(s0)
    1c08:	04f42a23          	sw	a5,84(s0)
    1c0c:	06e42023          	sw	a4,96(s0)
    1c10:	06f42223          	sw	a5,100(s0)
    1c14:	06e42823          	sw	a4,112(s0)
    1c18:	06f42a23          	sw	a5,116(s0)
    1c1c:	07242c23          	sw	s2,120(s0)
    1c20:	00040513          	mv	a0,s0
    1c24:	06942e23          	sw	s1,124(s0)
    1c28:	02c12083          	lw	ra,44(sp)
    1c2c:	08e42023          	sw	a4,128(s0)
    1c30:	08f42223          	sw	a5,132(s0)
    1c34:	02812403          	lw	s0,40(sp)
    1c38:	02412483          	lw	s1,36(sp)
    1c3c:	02012903          	lw	s2,32(sp)
    1c40:	01c12983          	lw	s3,28(sp)
    1c44:	01812a03          	lw	s4,24(sp)
    1c48:	01412a83          	lw	s5,20(sp)
    1c4c:	01012b03          	lw	s6,16(sp)
    1c50:	00c12b83          	lw	s7,12(sp)
    1c54:	00812c03          	lw	s8,8(sp)
    1c58:	03010113          	addi	sp,sp,48
    1c5c:	00008067          	ret

00001c60 <create_dirt_block>:
    1c60:	fd010113          	addi	sp,sp,-48
    1c64:	02912223          	sw	s1,36(sp)
    1c68:	03212023          	sw	s2,32(sp)
    1c6c:	00060493          	mv	s1,a2
    1c70:	00058913          	mv	s2,a1
    1c74:	00c00613          	li	a2,12
    1c78:	00800593          	li	a1,8
    1c7c:	02112623          	sw	ra,44(sp)
    1c80:	02812423          	sw	s0,40(sp)
    1c84:	01312e23          	sw	s3,28(sp)
    1c88:	00050413          	mv	s0,a0
    1c8c:	01412c23          	sw	s4,24(sp)
    1c90:	01512a23          	sw	s5,20(sp)
    1c94:	01612823          	sw	s6,16(sp)
    1c98:	01712623          	sw	s7,12(sp)
    1c9c:	01812423          	sw	s8,8(sp)
    1ca0:	260040ef          	jal	5f00 <create_mesh4>
    1ca4:	00092983          	lw	s3,0(s2)
    1ca8:	00492b83          	lw	s7,4(s2)
    1cac:	00048593          	mv	a1,s1
    1cb0:	00098513          	mv	a0,s3
    1cb4:	064050ef          	jal	6d18 <__subsf3>
    1cb8:	00892b03          	lw	s6,8(s2)
    1cbc:	00048593          	mv	a1,s1
    1cc0:	00050913          	mv	s2,a0
    1cc4:	000b8513          	mv	a0,s7
    1cc8:	050050ef          	jal	6d18 <__subsf3>
    1ccc:	00050a13          	mv	s4,a0
    1cd0:	00048593          	mv	a1,s1
    1cd4:	000b0513          	mv	a0,s6
    1cd8:	040050ef          	jal	6d18 <__subsf3>
    1cdc:	00050a93          	mv	s5,a0
    1ce0:	00098593          	mv	a1,s3
    1ce4:	00048513          	mv	a0,s1
    1ce8:	038050ef          	jal	6d20 <__addsf3>
    1cec:	00050993          	mv	s3,a0
    1cf0:	000b8593          	mv	a1,s7
    1cf4:	00048513          	mv	a0,s1
    1cf8:	028050ef          	jal	6d20 <__addsf3>
    1cfc:	00050793          	mv	a5,a0
    1d00:	000b0593          	mv	a1,s6
    1d04:	00048513          	mv	a0,s1
    1d08:	00078493          	mv	s1,a5
    1d0c:	014050ef          	jal	6d20 <__addsf3>
    1d10:	0009d7b7          	lui	a5,0x9d
    1d14:	3fc78793          	addi	a5,a5,1020 # 9d3fc <CSWTCH.6+0x28>
    1d18:	0047ab83          	lw	s7,4(a5)
    1d1c:	0087ab03          	lw	s6,8(a5)
    1d20:	00c7a383          	lw	t2,12(a5)
    1d24:	0107a283          	lw	t0,16(a5)
    1d28:	0147af83          	lw	t6,20(a5)
    1d2c:	0187af03          	lw	t5,24(a5)
    1d30:	0007ac03          	lw	s8,0(a5)
    1d34:	01c7ae83          	lw	t4,28(a5)
    1d38:	0207ae03          	lw	t3,32(a5)
    1d3c:	0247a303          	lw	t1,36(a5)
    1d40:	65842423          	sw	s8,1608(s0)
    1d44:	65742623          	sw	s7,1612(s0)
    1d48:	65642823          	sw	s6,1616(s0)
    1d4c:	64742a23          	sw	t2,1620(s0)
    1d50:	64542c23          	sw	t0,1624(s0)
    1d54:	65f42e23          	sw	t6,1628(s0)
    1d58:	67e42023          	sw	t5,1632(s0)
    1d5c:	00050713          	mv	a4,a0
    1d60:	0287a883          	lw	a7,40(a5)
    1d64:	02c7a803          	lw	a6,44(a5)
    1d68:	0307a503          	lw	a0,48(a5)
    1d6c:	0347a583          	lw	a1,52(a5)
    1d70:	0387a603          	lw	a2,56(a5)
    1d74:	03c7a683          	lw	a3,60(a5)
    1d78:	67d42223          	sw	t4,1636(s0)
    1d7c:	0447ab83          	lw	s7,68(a5)
    1d80:	0487ab03          	lw	s6,72(a5)
    1d84:	04c7a383          	lw	t2,76(a5)
    1d88:	0507a283          	lw	t0,80(a5)
    1d8c:	0547af83          	lw	t6,84(a5)
    1d90:	0587af03          	lw	t5,88(a5)
    1d94:	05c7ae83          	lw	t4,92(a5)
    1d98:	0407ac03          	lw	s8,64(a5)
    1d9c:	67c42423          	sw	t3,1640(s0)
    1da0:	0607ae03          	lw	t3,96(a5)
    1da4:	66642623          	sw	t1,1644(s0)
    1da8:	0647a303          	lw	t1,100(a5)
    1dac:	67142823          	sw	a7,1648(s0)
    1db0:	67042a23          	sw	a6,1652(s0)
    1db4:	0687a883          	lw	a7,104(a5)
    1db8:	66a42c23          	sw	a0,1656(s0)
    1dbc:	66b42e23          	sw	a1,1660(s0)
    1dc0:	68c42023          	sw	a2,1664(s0)
    1dc4:	68d42223          	sw	a3,1668(s0)
    1dc8:	69842423          	sw	s8,1672(s0)
    1dcc:	69742623          	sw	s7,1676(s0)
    1dd0:	69642823          	sw	s6,1680(s0)
    1dd4:	68742a23          	sw	t2,1684(s0)
    1dd8:	68542c23          	sw	t0,1688(s0)
    1ddc:	69f42e23          	sw	t6,1692(s0)
    1de0:	6be42023          	sw	t5,1696(s0)
    1de4:	6bd42223          	sw	t4,1700(s0)
    1de8:	06c7a803          	lw	a6,108(a5)
    1dec:	0707a503          	lw	a0,112(a5)
    1df0:	0747a583          	lw	a1,116(a5)
    1df4:	0787a603          	lw	a2,120(a5)
    1df8:	07c7a683          	lw	a3,124(a5)
    1dfc:	6bc42423          	sw	t3,1704(s0)
    1e00:	0847ab83          	lw	s7,132(a5)
    1e04:	0887ab03          	lw	s6,136(a5)
    1e08:	08c7a383          	lw	t2,140(a5)
    1e0c:	0907a283          	lw	t0,144(a5)
    1e10:	0947af83          	lw	t6,148(a5)
    1e14:	0987af03          	lw	t5,152(a5)
    1e18:	09c7ae83          	lw	t4,156(a5)
    1e1c:	0a07ae03          	lw	t3,160(a5)
    1e20:	0807ac03          	lw	s8,128(a5)
    1e24:	6a642623          	sw	t1,1708(s0)
    1e28:	0a47a303          	lw	t1,164(a5)
    1e2c:	6b142823          	sw	a7,1712(s0)
    1e30:	0a87a883          	lw	a7,168(a5)
    1e34:	6b042a23          	sw	a6,1716(s0)
    1e38:	6aa42c23          	sw	a0,1720(s0)
    1e3c:	0ac7a803          	lw	a6,172(a5)
    1e40:	0b07a503          	lw	a0,176(a5)
    1e44:	6ab42e23          	sw	a1,1724(s0)
    1e48:	6cc42023          	sw	a2,1728(s0)
    1e4c:	6cd42223          	sw	a3,1732(s0)
    1e50:	6d842423          	sw	s8,1736(s0)
    1e54:	6d742623          	sw	s7,1740(s0)
    1e58:	6d642823          	sw	s6,1744(s0)
    1e5c:	6c742a23          	sw	t2,1748(s0)
    1e60:	6c542c23          	sw	t0,1752(s0)
    1e64:	6df42e23          	sw	t6,1756(s0)
    1e68:	6fe42023          	sw	t5,1760(s0)
    1e6c:	6fd42223          	sw	t4,1764(s0)
    1e70:	6fc42423          	sw	t3,1768(s0)
    1e74:	0b47a583          	lw	a1,180(a5)
    1e78:	0b87a603          	lw	a2,184(a5)
    1e7c:	0bc7a683          	lw	a3,188(a5)
    1e80:	6e642623          	sw	t1,1772(s0)
    1e84:	0c47ab83          	lw	s7,196(a5)
    1e88:	0c87ab03          	lw	s6,200(a5)
    1e8c:	0cc7a383          	lw	t2,204(a5)
    1e90:	0d07a283          	lw	t0,208(a5)
    1e94:	0d47af83          	lw	t6,212(a5)
    1e98:	0d87af03          	lw	t5,216(a5)
    1e9c:	0dc7ae83          	lw	t4,220(a5)
    1ea0:	0e07ae03          	lw	t3,224(a5)
    1ea4:	0e47a303          	lw	t1,228(a5)
    1ea8:	0c07ac03          	lw	s8,192(a5)
    1eac:	6f142823          	sw	a7,1776(s0)
    1eb0:	0e87a883          	lw	a7,232(a5)
    1eb4:	6f042a23          	sw	a6,1780(s0)
    1eb8:	6ea42c23          	sw	a0,1784(s0)
    1ebc:	0ec7a803          	lw	a6,236(a5)
    1ec0:	0f07a503          	lw	a0,240(a5)
    1ec4:	6eb42e23          	sw	a1,1788(s0)
    1ec8:	70c42023          	sw	a2,1792(s0)
    1ecc:	0f47a583          	lw	a1,244(a5)
    1ed0:	0f87a603          	lw	a2,248(a5)
    1ed4:	70d42223          	sw	a3,1796(s0)
    1ed8:	71842423          	sw	s8,1800(s0)
    1edc:	0fc7a683          	lw	a3,252(a5)
    1ee0:	71742623          	sw	s7,1804(s0)
    1ee4:	71642823          	sw	s6,1808(s0)
    1ee8:	70742a23          	sw	t2,1812(s0)
    1eec:	70542c23          	sw	t0,1816(s0)
    1ef0:	71f42e23          	sw	t6,1820(s0)
    1ef4:	73e42023          	sw	t5,1824(s0)
    1ef8:	73d42223          	sw	t4,1828(s0)
    1efc:	73c42423          	sw	t3,1832(s0)
    1f00:	72642623          	sw	t1,1836(s0)
    1f04:	73142823          	sw	a7,1840(s0)
    1f08:	1847ab83          	lw	s7,388(a5)
    1f0c:	1887ab03          	lw	s6,392(a5)
    1f10:	18c7a383          	lw	t2,396(a5)
    1f14:	1907a283          	lw	t0,400(a5)
    1f18:	1947af83          	lw	t6,404(a5)
    1f1c:	1987af03          	lw	t5,408(a5)
    1f20:	19c7ae83          	lw	t4,412(a5)
    1f24:	1a07ae03          	lw	t3,416(a5)
    1f28:	1a47a303          	lw	t1,420(a5)
    1f2c:	1a87a883          	lw	a7,424(a5)
    1f30:	1807ac03          	lw	s8,384(a5)
    1f34:	73042a23          	sw	a6,1844(s0)
    1f38:	72a42c23          	sw	a0,1848(s0)
    1f3c:	1ac7a803          	lw	a6,428(a5)
    1f40:	1b07a503          	lw	a0,432(a5)
    1f44:	72b42e23          	sw	a1,1852(s0)
    1f48:	74c42023          	sw	a2,1856(s0)
    1f4c:	1b47a583          	lw	a1,436(a5)
    1f50:	1b87a603          	lw	a2,440(a5)
    1f54:	74d42223          	sw	a3,1860(s0)
    1f58:	1bc7a683          	lw	a3,444(a5)
    1f5c:	75842423          	sw	s8,1864(s0)
    1f60:	75742623          	sw	s7,1868(s0)
    1f64:	75642823          	sw	s6,1872(s0)
    1f68:	74742a23          	sw	t2,1876(s0)
    1f6c:	74542c23          	sw	t0,1880(s0)
    1f70:	75f42e23          	sw	t6,1884(s0)
    1f74:	77e42023          	sw	t5,1888(s0)
    1f78:	77d42223          	sw	t4,1892(s0)
    1f7c:	77c42423          	sw	t3,1896(s0)
    1f80:	76642623          	sw	t1,1900(s0)
    1f84:	77142823          	sw	a7,1904(s0)
    1f88:	77042a23          	sw	a6,1908(s0)
    1f8c:	1c07ab83          	lw	s7,448(a5)
    1f90:	1c47ab03          	lw	s6,452(a5)
    1f94:	1c87a383          	lw	t2,456(a5)
    1f98:	1cc7a283          	lw	t0,460(a5)
    1f9c:	1d07af83          	lw	t6,464(a5)
    1fa0:	1d47af03          	lw	t5,468(a5)
    1fa4:	1d87ae83          	lw	t4,472(a5)
    1fa8:	1dc7ae03          	lw	t3,476(a5)
    1fac:	1e07a303          	lw	t1,480(a5)
    1fb0:	1e47a883          	lw	a7,484(a5)
    1fb4:	1e87a803          	lw	a6,488(a5)
    1fb8:	76a42c23          	sw	a0,1912(s0)
    1fbc:	1ec7a503          	lw	a0,492(a5)
    1fc0:	76b42e23          	sw	a1,1916(s0)
    1fc4:	78c42023          	sw	a2,1920(s0)
    1fc8:	78d42223          	sw	a3,1924(s0)
    1fcc:	1f47a603          	lw	a2,500(a5)
    1fd0:	1f87a683          	lw	a3,504(a5)
    1fd4:	1f07a583          	lw	a1,496(a5)
    1fd8:	1fc7a783          	lw	a5,508(a5)
    1fdc:	79742423          	sw	s7,1928(s0)
    1fe0:	79642623          	sw	s6,1932(s0)
    1fe4:	7aa42a23          	sw	a0,1972(s0)
    1fe8:	78742823          	sw	t2,1936(s0)
    1fec:	78542a23          	sw	t0,1940(s0)
    1ff0:	79f42c23          	sw	t6,1944(s0)
    1ff4:	79e42e23          	sw	t5,1948(s0)
    1ff8:	7bd42023          	sw	t4,1952(s0)
    1ffc:	7bc42223          	sw	t3,1956(s0)
    2000:	7a642423          	sw	t1,1960(s0)
    2004:	7b142623          	sw	a7,1964(s0)
    2008:	7b042823          	sw	a6,1968(s0)
    200c:	7ab42c23          	sw	a1,1976(s0)
    2010:	7cf42223          	sw	a5,1988(s0)
    2014:	0009e7b7          	lui	a5,0x9e
    2018:	9087a783          	lw	a5,-1784(a5) # 9d908 <CSWTCH.6+0x534>
    201c:	01242423          	sw	s2,8(s0)
    2020:	01442623          	sw	s4,12(s0)
    2024:	01542823          	sw	s5,16(s0)
    2028:	01342c23          	sw	s3,24(s0)
    202c:	01442e23          	sw	s4,28(s0)
    2030:	03542023          	sw	s5,32(s0)
    2034:	03342423          	sw	s3,40(s0)
    2038:	02942623          	sw	s1,44(s0)
    203c:	03542823          	sw	s5,48(s0)
    2040:	03242c23          	sw	s2,56(s0)
    2044:	02942e23          	sw	s1,60(s0)
    2048:	05542023          	sw	s5,64(s0)
    204c:	05242423          	sw	s2,72(s0)
    2050:	05442623          	sw	s4,76(s0)
    2054:	05342c23          	sw	s3,88(s0)
    2058:	05442e23          	sw	s4,92(s0)
    205c:	07342423          	sw	s3,104(s0)
    2060:	06942623          	sw	s1,108(s0)
    2064:	7ac42e23          	sw	a2,1980(s0)
    2068:	7cd42023          	sw	a3,1984(s0)
    206c:	00f42a23          	sw	a5,20(s0)
    2070:	02f42223          	sw	a5,36(s0)
    2074:	02f42a23          	sw	a5,52(s0)
    2078:	04f42223          	sw	a5,68(s0)
    207c:	04e42823          	sw	a4,80(s0)
    2080:	04f42a23          	sw	a5,84(s0)
    2084:	06e42023          	sw	a4,96(s0)
    2088:	06f42223          	sw	a5,100(s0)
    208c:	06e42823          	sw	a4,112(s0)
    2090:	06f42a23          	sw	a5,116(s0)
    2094:	07242c23          	sw	s2,120(s0)
    2098:	00040513          	mv	a0,s0
    209c:	06942e23          	sw	s1,124(s0)
    20a0:	02c12083          	lw	ra,44(sp)
    20a4:	08e42023          	sw	a4,128(s0)
    20a8:	08f42223          	sw	a5,132(s0)
    20ac:	02812403          	lw	s0,40(sp)
    20b0:	02412483          	lw	s1,36(sp)
    20b4:	02012903          	lw	s2,32(sp)
    20b8:	01c12983          	lw	s3,28(sp)
    20bc:	01812a03          	lw	s4,24(sp)
    20c0:	01412a83          	lw	s5,20(sp)
    20c4:	01012b03          	lw	s6,16(sp)
    20c8:	00c12b83          	lw	s7,12(sp)
    20cc:	00812c03          	lw	s8,8(sp)
    20d0:	03010113          	addi	sp,sp,48
    20d4:	00008067          	ret

000020d8 <create_wood_block>:
    20d8:	fd010113          	addi	sp,sp,-48
    20dc:	02912223          	sw	s1,36(sp)
    20e0:	03212023          	sw	s2,32(sp)
    20e4:	00060493          	mv	s1,a2
    20e8:	00058913          	mv	s2,a1
    20ec:	00c00613          	li	a2,12
    20f0:	00800593          	li	a1,8
    20f4:	02112623          	sw	ra,44(sp)
    20f8:	02812423          	sw	s0,40(sp)
    20fc:	01312e23          	sw	s3,28(sp)
    2100:	00050413          	mv	s0,a0
    2104:	01412c23          	sw	s4,24(sp)
    2108:	01512a23          	sw	s5,20(sp)
    210c:	01612823          	sw	s6,16(sp)
    2110:	01712623          	sw	s7,12(sp)
    2114:	01812423          	sw	s8,8(sp)
    2118:	5e9030ef          	jal	5f00 <create_mesh4>
    211c:	00092983          	lw	s3,0(s2)
    2120:	00492b83          	lw	s7,4(s2)
    2124:	00048593          	mv	a1,s1
    2128:	00098513          	mv	a0,s3
    212c:	3ed040ef          	jal	6d18 <__subsf3>
    2130:	00892b03          	lw	s6,8(s2)
    2134:	00048593          	mv	a1,s1
    2138:	00050913          	mv	s2,a0
    213c:	000b8513          	mv	a0,s7
    2140:	3d9040ef          	jal	6d18 <__subsf3>
    2144:	00050a13          	mv	s4,a0
    2148:	00048593          	mv	a1,s1
    214c:	000b0513          	mv	a0,s6
    2150:	3c9040ef          	jal	6d18 <__subsf3>
    2154:	00050a93          	mv	s5,a0
    2158:	00098593          	mv	a1,s3
    215c:	00048513          	mv	a0,s1
    2160:	3c1040ef          	jal	6d20 <__addsf3>
    2164:	00050993          	mv	s3,a0
    2168:	000b8593          	mv	a1,s7
    216c:	00048513          	mv	a0,s1
    2170:	3b1040ef          	jal	6d20 <__addsf3>
    2174:	00050793          	mv	a5,a0
    2178:	000b0593          	mv	a1,s6
    217c:	00048513          	mv	a0,s1
    2180:	00078493          	mv	s1,a5
    2184:	39d040ef          	jal	6d20 <__addsf3>
    2188:	0009d7b7          	lui	a5,0x9d
    218c:	3fc78793          	addi	a5,a5,1020 # 9d3fc <CSWTCH.6+0x28>
    2190:	2047ab83          	lw	s7,516(a5)
    2194:	2087ab03          	lw	s6,520(a5)
    2198:	20c7a383          	lw	t2,524(a5)
    219c:	2107a283          	lw	t0,528(a5)
    21a0:	2147af83          	lw	t6,532(a5)
    21a4:	2187af03          	lw	t5,536(a5)
    21a8:	2007ac03          	lw	s8,512(a5)
    21ac:	21c7ae83          	lw	t4,540(a5)
    21b0:	2207ae03          	lw	t3,544(a5)
    21b4:	2247a303          	lw	t1,548(a5)
    21b8:	65842423          	sw	s8,1608(s0)
    21bc:	65742623          	sw	s7,1612(s0)
    21c0:	65642823          	sw	s6,1616(s0)
    21c4:	64742a23          	sw	t2,1620(s0)
    21c8:	64542c23          	sw	t0,1624(s0)
    21cc:	65f42e23          	sw	t6,1628(s0)
    21d0:	67e42023          	sw	t5,1632(s0)
    21d4:	00050713          	mv	a4,a0
    21d8:	2287a883          	lw	a7,552(a5)
    21dc:	22c7a803          	lw	a6,556(a5)
    21e0:	2307a503          	lw	a0,560(a5)
    21e4:	2347a583          	lw	a1,564(a5)
    21e8:	2387a603          	lw	a2,568(a5)
    21ec:	23c7a683          	lw	a3,572(a5)
    21f0:	67d42223          	sw	t4,1636(s0)
    21f4:	2447ab83          	lw	s7,580(a5)
    21f8:	2487ab03          	lw	s6,584(a5)
    21fc:	24c7a383          	lw	t2,588(a5)
    2200:	2507a283          	lw	t0,592(a5)
    2204:	2547af83          	lw	t6,596(a5)
    2208:	2587af03          	lw	t5,600(a5)
    220c:	25c7ae83          	lw	t4,604(a5)
    2210:	2407ac03          	lw	s8,576(a5)
    2214:	67c42423          	sw	t3,1640(s0)
    2218:	2607ae03          	lw	t3,608(a5)
    221c:	66642623          	sw	t1,1644(s0)
    2220:	2647a303          	lw	t1,612(a5)
    2224:	67142823          	sw	a7,1648(s0)
    2228:	67042a23          	sw	a6,1652(s0)
    222c:	2687a883          	lw	a7,616(a5)
    2230:	66a42c23          	sw	a0,1656(s0)
    2234:	66b42e23          	sw	a1,1660(s0)
    2238:	68c42023          	sw	a2,1664(s0)
    223c:	68d42223          	sw	a3,1668(s0)
    2240:	69842423          	sw	s8,1672(s0)
    2244:	69742623          	sw	s7,1676(s0)
    2248:	69642823          	sw	s6,1680(s0)
    224c:	68742a23          	sw	t2,1684(s0)
    2250:	68542c23          	sw	t0,1688(s0)
    2254:	69f42e23          	sw	t6,1692(s0)
    2258:	6be42023          	sw	t5,1696(s0)
    225c:	6bd42223          	sw	t4,1700(s0)
    2260:	26c7a803          	lw	a6,620(a5)
    2264:	2707a503          	lw	a0,624(a5)
    2268:	2747a583          	lw	a1,628(a5)
    226c:	2787a603          	lw	a2,632(a5)
    2270:	27c7a683          	lw	a3,636(a5)
    2274:	6bc42423          	sw	t3,1704(s0)
    2278:	2847ab83          	lw	s7,644(a5)
    227c:	2887ab03          	lw	s6,648(a5)
    2280:	28c7a383          	lw	t2,652(a5)
    2284:	2907a283          	lw	t0,656(a5)
    2288:	2947af83          	lw	t6,660(a5)
    228c:	2987af03          	lw	t5,664(a5)
    2290:	29c7ae83          	lw	t4,668(a5)
    2294:	2a07ae03          	lw	t3,672(a5)
    2298:	2807ac03          	lw	s8,640(a5)
    229c:	6a642623          	sw	t1,1708(s0)
    22a0:	2a47a303          	lw	t1,676(a5)
    22a4:	6b142823          	sw	a7,1712(s0)
    22a8:	2a87a883          	lw	a7,680(a5)
    22ac:	6b042a23          	sw	a6,1716(s0)
    22b0:	6aa42c23          	sw	a0,1720(s0)
    22b4:	2ac7a803          	lw	a6,684(a5)
    22b8:	2b07a503          	lw	a0,688(a5)
    22bc:	6ab42e23          	sw	a1,1724(s0)
    22c0:	6cc42023          	sw	a2,1728(s0)
    22c4:	6cd42223          	sw	a3,1732(s0)
    22c8:	6d842423          	sw	s8,1736(s0)
    22cc:	6d742623          	sw	s7,1740(s0)
    22d0:	6d642823          	sw	s6,1744(s0)
    22d4:	6c742a23          	sw	t2,1748(s0)
    22d8:	6c542c23          	sw	t0,1752(s0)
    22dc:	6df42e23          	sw	t6,1756(s0)
    22e0:	6fe42023          	sw	t5,1760(s0)
    22e4:	6fd42223          	sw	t4,1764(s0)
    22e8:	6fc42423          	sw	t3,1768(s0)
    22ec:	2b47a583          	lw	a1,692(a5)
    22f0:	2b87a603          	lw	a2,696(a5)
    22f4:	2bc7a683          	lw	a3,700(a5)
    22f8:	6e642623          	sw	t1,1772(s0)
    22fc:	2c47ab83          	lw	s7,708(a5)
    2300:	2c87ab03          	lw	s6,712(a5)
    2304:	2cc7a383          	lw	t2,716(a5)
    2308:	2d07a283          	lw	t0,720(a5)
    230c:	2d47af83          	lw	t6,724(a5)
    2310:	2d87af03          	lw	t5,728(a5)
    2314:	2dc7ae83          	lw	t4,732(a5)
    2318:	2e07ae03          	lw	t3,736(a5)
    231c:	2e47a303          	lw	t1,740(a5)
    2320:	2c07ac03          	lw	s8,704(a5)
    2324:	6f142823          	sw	a7,1776(s0)
    2328:	2e87a883          	lw	a7,744(a5)
    232c:	6f042a23          	sw	a6,1780(s0)
    2330:	6ea42c23          	sw	a0,1784(s0)
    2334:	2ec7a803          	lw	a6,748(a5)
    2338:	2f07a503          	lw	a0,752(a5)
    233c:	6eb42e23          	sw	a1,1788(s0)
    2340:	70c42023          	sw	a2,1792(s0)
    2344:	2f47a583          	lw	a1,756(a5)
    2348:	2f87a603          	lw	a2,760(a5)
    234c:	70d42223          	sw	a3,1796(s0)
    2350:	71842423          	sw	s8,1800(s0)
    2354:	2fc7a683          	lw	a3,764(a5)
    2358:	71742623          	sw	s7,1804(s0)
    235c:	71642823          	sw	s6,1808(s0)
    2360:	70742a23          	sw	t2,1812(s0)
    2364:	70542c23          	sw	t0,1816(s0)
    2368:	71f42e23          	sw	t6,1820(s0)
    236c:	73e42023          	sw	t5,1824(s0)
    2370:	73d42223          	sw	t4,1828(s0)
    2374:	73c42423          	sw	t3,1832(s0)
    2378:	72642623          	sw	t1,1836(s0)
    237c:	73142823          	sw	a7,1840(s0)
    2380:	3047ab83          	lw	s7,772(a5)
    2384:	3087ab03          	lw	s6,776(a5)
    2388:	30c7a383          	lw	t2,780(a5)
    238c:	3107a283          	lw	t0,784(a5)
    2390:	3147af83          	lw	t6,788(a5)
    2394:	3187af03          	lw	t5,792(a5)
    2398:	31c7ae83          	lw	t4,796(a5)
    239c:	3207ae03          	lw	t3,800(a5)
    23a0:	3247a303          	lw	t1,804(a5)
    23a4:	3287a883          	lw	a7,808(a5)
    23a8:	3007ac03          	lw	s8,768(a5)
    23ac:	73042a23          	sw	a6,1844(s0)
    23b0:	72a42c23          	sw	a0,1848(s0)
    23b4:	32c7a803          	lw	a6,812(a5)
    23b8:	3307a503          	lw	a0,816(a5)
    23bc:	72b42e23          	sw	a1,1852(s0)
    23c0:	74c42023          	sw	a2,1856(s0)
    23c4:	3347a583          	lw	a1,820(a5)
    23c8:	3387a603          	lw	a2,824(a5)
    23cc:	74d42223          	sw	a3,1860(s0)
    23d0:	33c7a683          	lw	a3,828(a5)
    23d4:	75842423          	sw	s8,1864(s0)
    23d8:	75742623          	sw	s7,1868(s0)
    23dc:	75642823          	sw	s6,1872(s0)
    23e0:	74742a23          	sw	t2,1876(s0)
    23e4:	74542c23          	sw	t0,1880(s0)
    23e8:	75f42e23          	sw	t6,1884(s0)
    23ec:	77e42023          	sw	t5,1888(s0)
    23f0:	77d42223          	sw	t4,1892(s0)
    23f4:	77c42423          	sw	t3,1896(s0)
    23f8:	76642623          	sw	t1,1900(s0)
    23fc:	77142823          	sw	a7,1904(s0)
    2400:	77042a23          	sw	a6,1908(s0)
    2404:	3407ab83          	lw	s7,832(a5)
    2408:	3447ab03          	lw	s6,836(a5)
    240c:	3487a383          	lw	t2,840(a5)
    2410:	34c7a283          	lw	t0,844(a5)
    2414:	3507af83          	lw	t6,848(a5)
    2418:	3547af03          	lw	t5,852(a5)
    241c:	3587ae83          	lw	t4,856(a5)
    2420:	35c7ae03          	lw	t3,860(a5)
    2424:	3607a303          	lw	t1,864(a5)
    2428:	3647a883          	lw	a7,868(a5)
    242c:	3687a803          	lw	a6,872(a5)
    2430:	76a42c23          	sw	a0,1912(s0)
    2434:	36c7a503          	lw	a0,876(a5)
    2438:	76b42e23          	sw	a1,1916(s0)
    243c:	78c42023          	sw	a2,1920(s0)
    2440:	78d42223          	sw	a3,1924(s0)
    2444:	3747a603          	lw	a2,884(a5)
    2448:	3787a683          	lw	a3,888(a5)
    244c:	3707a583          	lw	a1,880(a5)
    2450:	37c7a783          	lw	a5,892(a5)
    2454:	79742423          	sw	s7,1928(s0)
    2458:	79642623          	sw	s6,1932(s0)
    245c:	7aa42a23          	sw	a0,1972(s0)
    2460:	78742823          	sw	t2,1936(s0)
    2464:	78542a23          	sw	t0,1940(s0)
    2468:	79f42c23          	sw	t6,1944(s0)
    246c:	79e42e23          	sw	t5,1948(s0)
    2470:	7bd42023          	sw	t4,1952(s0)
    2474:	7bc42223          	sw	t3,1956(s0)
    2478:	7a642423          	sw	t1,1960(s0)
    247c:	7b142623          	sw	a7,1964(s0)
    2480:	7b042823          	sw	a6,1968(s0)
    2484:	7ab42c23          	sw	a1,1976(s0)
    2488:	7cf42223          	sw	a5,1988(s0)
    248c:	0009e7b7          	lui	a5,0x9e
    2490:	9087a783          	lw	a5,-1784(a5) # 9d908 <CSWTCH.6+0x534>
    2494:	01242423          	sw	s2,8(s0)
    2498:	01442623          	sw	s4,12(s0)
    249c:	01542823          	sw	s5,16(s0)
    24a0:	01342c23          	sw	s3,24(s0)
    24a4:	01442e23          	sw	s4,28(s0)
    24a8:	03542023          	sw	s5,32(s0)
    24ac:	03342423          	sw	s3,40(s0)
    24b0:	02942623          	sw	s1,44(s0)
    24b4:	03542823          	sw	s5,48(s0)
    24b8:	03242c23          	sw	s2,56(s0)
    24bc:	02942e23          	sw	s1,60(s0)
    24c0:	05542023          	sw	s5,64(s0)
    24c4:	05242423          	sw	s2,72(s0)
    24c8:	05442623          	sw	s4,76(s0)
    24cc:	05342c23          	sw	s3,88(s0)
    24d0:	05442e23          	sw	s4,92(s0)
    24d4:	07342423          	sw	s3,104(s0)
    24d8:	06942623          	sw	s1,108(s0)
    24dc:	7ac42e23          	sw	a2,1980(s0)
    24e0:	7cd42023          	sw	a3,1984(s0)
    24e4:	00f42a23          	sw	a5,20(s0)
    24e8:	02f42223          	sw	a5,36(s0)
    24ec:	02f42a23          	sw	a5,52(s0)
    24f0:	04f42223          	sw	a5,68(s0)
    24f4:	04e42823          	sw	a4,80(s0)
    24f8:	04f42a23          	sw	a5,84(s0)
    24fc:	06e42023          	sw	a4,96(s0)
    2500:	06f42223          	sw	a5,100(s0)
    2504:	06e42823          	sw	a4,112(s0)
    2508:	06f42a23          	sw	a5,116(s0)
    250c:	07242c23          	sw	s2,120(s0)
    2510:	00040513          	mv	a0,s0
    2514:	06942e23          	sw	s1,124(s0)
    2518:	02c12083          	lw	ra,44(sp)
    251c:	08e42023          	sw	a4,128(s0)
    2520:	08f42223          	sw	a5,132(s0)
    2524:	02812403          	lw	s0,40(sp)
    2528:	02412483          	lw	s1,36(sp)
    252c:	02012903          	lw	s2,32(sp)
    2530:	01c12983          	lw	s3,28(sp)
    2534:	01812a03          	lw	s4,24(sp)
    2538:	01412a83          	lw	s5,20(sp)
    253c:	01012b03          	lw	s6,16(sp)
    2540:	00c12b83          	lw	s7,12(sp)
    2544:	00812c03          	lw	s8,8(sp)
    2548:	03010113          	addi	sp,sp,48
    254c:	00008067          	ret

00002550 <create_leaf_block>:
    2550:	fd010113          	addi	sp,sp,-48
    2554:	02912223          	sw	s1,36(sp)
    2558:	03212023          	sw	s2,32(sp)
    255c:	00060493          	mv	s1,a2
    2560:	00058913          	mv	s2,a1
    2564:	00c00613          	li	a2,12
    2568:	00800593          	li	a1,8
    256c:	02112623          	sw	ra,44(sp)
    2570:	02812423          	sw	s0,40(sp)
    2574:	01312e23          	sw	s3,28(sp)
    2578:	00050413          	mv	s0,a0
    257c:	01412c23          	sw	s4,24(sp)
    2580:	01512a23          	sw	s5,20(sp)
    2584:	01612823          	sw	s6,16(sp)
    2588:	01712623          	sw	s7,12(sp)
    258c:	01812423          	sw	s8,8(sp)
    2590:	171030ef          	jal	5f00 <create_mesh4>
    2594:	00092983          	lw	s3,0(s2)
    2598:	00492b83          	lw	s7,4(s2)
    259c:	00048593          	mv	a1,s1
    25a0:	00098513          	mv	a0,s3
    25a4:	774040ef          	jal	6d18 <__subsf3>
    25a8:	00892b03          	lw	s6,8(s2)
    25ac:	00048593          	mv	a1,s1
    25b0:	00050913          	mv	s2,a0
    25b4:	000b8513          	mv	a0,s7
    25b8:	760040ef          	jal	6d18 <__subsf3>
    25bc:	00050a13          	mv	s4,a0
    25c0:	00048593          	mv	a1,s1
    25c4:	000b0513          	mv	a0,s6
    25c8:	750040ef          	jal	6d18 <__subsf3>
    25cc:	00050a93          	mv	s5,a0
    25d0:	00098593          	mv	a1,s3
    25d4:	00048513          	mv	a0,s1
    25d8:	748040ef          	jal	6d20 <__addsf3>
    25dc:	00050993          	mv	s3,a0
    25e0:	000b8593          	mv	a1,s7
    25e4:	00048513          	mv	a0,s1
    25e8:	738040ef          	jal	6d20 <__addsf3>
    25ec:	00050793          	mv	a5,a0
    25f0:	000b0593          	mv	a1,s6
    25f4:	00048513          	mv	a0,s1
    25f8:	00078493          	mv	s1,a5
    25fc:	724040ef          	jal	6d20 <__addsf3>
    2600:	0009d7b7          	lui	a5,0x9d
    2604:	3fc78793          	addi	a5,a5,1020 # 9d3fc <CSWTCH.6+0x28>
    2608:	3847ab83          	lw	s7,900(a5)
    260c:	3887ab03          	lw	s6,904(a5)
    2610:	38c7a383          	lw	t2,908(a5)
    2614:	3907a283          	lw	t0,912(a5)
    2618:	3947af83          	lw	t6,916(a5)
    261c:	3987af03          	lw	t5,920(a5)
    2620:	3807ac03          	lw	s8,896(a5)
    2624:	39c7ae83          	lw	t4,924(a5)
    2628:	3a07ae03          	lw	t3,928(a5)
    262c:	3a47a303          	lw	t1,932(a5)
    2630:	65842423          	sw	s8,1608(s0)
    2634:	65742623          	sw	s7,1612(s0)
    2638:	65642823          	sw	s6,1616(s0)
    263c:	64742a23          	sw	t2,1620(s0)
    2640:	64542c23          	sw	t0,1624(s0)
    2644:	65f42e23          	sw	t6,1628(s0)
    2648:	67e42023          	sw	t5,1632(s0)
    264c:	00050713          	mv	a4,a0
    2650:	3a87a883          	lw	a7,936(a5)
    2654:	3ac7a803          	lw	a6,940(a5)
    2658:	3b07a503          	lw	a0,944(a5)
    265c:	3b47a583          	lw	a1,948(a5)
    2660:	3b87a603          	lw	a2,952(a5)
    2664:	3bc7a683          	lw	a3,956(a5)
    2668:	67d42223          	sw	t4,1636(s0)
    266c:	3c47ab83          	lw	s7,964(a5)
    2670:	3c87ab03          	lw	s6,968(a5)
    2674:	3cc7a383          	lw	t2,972(a5)
    2678:	3d07a283          	lw	t0,976(a5)
    267c:	3d47af83          	lw	t6,980(a5)
    2680:	3d87af03          	lw	t5,984(a5)
    2684:	3dc7ae83          	lw	t4,988(a5)
    2688:	3c07ac03          	lw	s8,960(a5)
    268c:	67c42423          	sw	t3,1640(s0)
    2690:	3e07ae03          	lw	t3,992(a5)
    2694:	66642623          	sw	t1,1644(s0)
    2698:	3e47a303          	lw	t1,996(a5)
    269c:	67142823          	sw	a7,1648(s0)
    26a0:	67042a23          	sw	a6,1652(s0)
    26a4:	3e87a883          	lw	a7,1000(a5)
    26a8:	66a42c23          	sw	a0,1656(s0)
    26ac:	66b42e23          	sw	a1,1660(s0)
    26b0:	68c42023          	sw	a2,1664(s0)
    26b4:	68d42223          	sw	a3,1668(s0)
    26b8:	69842423          	sw	s8,1672(s0)
    26bc:	69742623          	sw	s7,1676(s0)
    26c0:	69642823          	sw	s6,1680(s0)
    26c4:	68742a23          	sw	t2,1684(s0)
    26c8:	68542c23          	sw	t0,1688(s0)
    26cc:	69f42e23          	sw	t6,1692(s0)
    26d0:	6be42023          	sw	t5,1696(s0)
    26d4:	6bd42223          	sw	t4,1700(s0)
    26d8:	3ec7a803          	lw	a6,1004(a5)
    26dc:	3f07a503          	lw	a0,1008(a5)
    26e0:	3f47a583          	lw	a1,1012(a5)
    26e4:	3f87a603          	lw	a2,1016(a5)
    26e8:	3fc7a683          	lw	a3,1020(a5)
    26ec:	6bc42423          	sw	t3,1704(s0)
    26f0:	4047ab83          	lw	s7,1028(a5)
    26f4:	4087ab03          	lw	s6,1032(a5)
    26f8:	40c7a383          	lw	t2,1036(a5)
    26fc:	4107a283          	lw	t0,1040(a5)
    2700:	4147af83          	lw	t6,1044(a5)
    2704:	4187af03          	lw	t5,1048(a5)
    2708:	41c7ae83          	lw	t4,1052(a5)
    270c:	4207ae03          	lw	t3,1056(a5)
    2710:	4007ac03          	lw	s8,1024(a5)
    2714:	6a642623          	sw	t1,1708(s0)
    2718:	4247a303          	lw	t1,1060(a5)
    271c:	6b142823          	sw	a7,1712(s0)
    2720:	4287a883          	lw	a7,1064(a5)
    2724:	6b042a23          	sw	a6,1716(s0)
    2728:	6aa42c23          	sw	a0,1720(s0)
    272c:	42c7a803          	lw	a6,1068(a5)
    2730:	4307a503          	lw	a0,1072(a5)
    2734:	6ab42e23          	sw	a1,1724(s0)
    2738:	6cc42023          	sw	a2,1728(s0)
    273c:	6cd42223          	sw	a3,1732(s0)
    2740:	6d842423          	sw	s8,1736(s0)
    2744:	6d742623          	sw	s7,1740(s0)
    2748:	6d642823          	sw	s6,1744(s0)
    274c:	6c742a23          	sw	t2,1748(s0)
    2750:	6c542c23          	sw	t0,1752(s0)
    2754:	6df42e23          	sw	t6,1756(s0)
    2758:	6fe42023          	sw	t5,1760(s0)
    275c:	6fd42223          	sw	t4,1764(s0)
    2760:	6fc42423          	sw	t3,1768(s0)
    2764:	4347a583          	lw	a1,1076(a5)
    2768:	4387a603          	lw	a2,1080(a5)
    276c:	43c7a683          	lw	a3,1084(a5)
    2770:	6e642623          	sw	t1,1772(s0)
    2774:	4447ab83          	lw	s7,1092(a5)
    2778:	4487ab03          	lw	s6,1096(a5)
    277c:	44c7a383          	lw	t2,1100(a5)
    2780:	4507a283          	lw	t0,1104(a5)
    2784:	4547af83          	lw	t6,1108(a5)
    2788:	4587af03          	lw	t5,1112(a5)
    278c:	45c7ae83          	lw	t4,1116(a5)
    2790:	4607ae03          	lw	t3,1120(a5)
    2794:	4647a303          	lw	t1,1124(a5)
    2798:	4407ac03          	lw	s8,1088(a5)
    279c:	6f142823          	sw	a7,1776(s0)
    27a0:	4687a883          	lw	a7,1128(a5)
    27a4:	6f042a23          	sw	a6,1780(s0)
    27a8:	6ea42c23          	sw	a0,1784(s0)
    27ac:	46c7a803          	lw	a6,1132(a5)
    27b0:	4707a503          	lw	a0,1136(a5)
    27b4:	6eb42e23          	sw	a1,1788(s0)
    27b8:	70c42023          	sw	a2,1792(s0)
    27bc:	4747a583          	lw	a1,1140(a5)
    27c0:	4787a603          	lw	a2,1144(a5)
    27c4:	70d42223          	sw	a3,1796(s0)
    27c8:	71842423          	sw	s8,1800(s0)
    27cc:	47c7a683          	lw	a3,1148(a5)
    27d0:	71742623          	sw	s7,1804(s0)
    27d4:	71642823          	sw	s6,1808(s0)
    27d8:	70742a23          	sw	t2,1812(s0)
    27dc:	70542c23          	sw	t0,1816(s0)
    27e0:	71f42e23          	sw	t6,1820(s0)
    27e4:	73e42023          	sw	t5,1824(s0)
    27e8:	73d42223          	sw	t4,1828(s0)
    27ec:	73c42423          	sw	t3,1832(s0)
    27f0:	72642623          	sw	t1,1836(s0)
    27f4:	73142823          	sw	a7,1840(s0)
    27f8:	4847ab83          	lw	s7,1156(a5)
    27fc:	4887ab03          	lw	s6,1160(a5)
    2800:	48c7a383          	lw	t2,1164(a5)
    2804:	4907a283          	lw	t0,1168(a5)
    2808:	4947af83          	lw	t6,1172(a5)
    280c:	4987af03          	lw	t5,1176(a5)
    2810:	49c7ae83          	lw	t4,1180(a5)
    2814:	4a07ae03          	lw	t3,1184(a5)
    2818:	4a47a303          	lw	t1,1188(a5)
    281c:	4a87a883          	lw	a7,1192(a5)
    2820:	4807ac03          	lw	s8,1152(a5)
    2824:	73042a23          	sw	a6,1844(s0)
    2828:	72a42c23          	sw	a0,1848(s0)
    282c:	4ac7a803          	lw	a6,1196(a5)
    2830:	4b07a503          	lw	a0,1200(a5)
    2834:	72b42e23          	sw	a1,1852(s0)
    2838:	74c42023          	sw	a2,1856(s0)
    283c:	4b47a583          	lw	a1,1204(a5)
    2840:	4b87a603          	lw	a2,1208(a5)
    2844:	74d42223          	sw	a3,1860(s0)
    2848:	4bc7a683          	lw	a3,1212(a5)
    284c:	75842423          	sw	s8,1864(s0)
    2850:	75742623          	sw	s7,1868(s0)
    2854:	75642823          	sw	s6,1872(s0)
    2858:	74742a23          	sw	t2,1876(s0)
    285c:	74542c23          	sw	t0,1880(s0)
    2860:	75f42e23          	sw	t6,1884(s0)
    2864:	77e42023          	sw	t5,1888(s0)
    2868:	77d42223          	sw	t4,1892(s0)
    286c:	77c42423          	sw	t3,1896(s0)
    2870:	76642623          	sw	t1,1900(s0)
    2874:	77142823          	sw	a7,1904(s0)
    2878:	77042a23          	sw	a6,1908(s0)
    287c:	4c07ab83          	lw	s7,1216(a5)
    2880:	4c47ab03          	lw	s6,1220(a5)
    2884:	4c87a383          	lw	t2,1224(a5)
    2888:	4cc7a283          	lw	t0,1228(a5)
    288c:	4d07af83          	lw	t6,1232(a5)
    2890:	4d47af03          	lw	t5,1236(a5)
    2894:	4d87ae83          	lw	t4,1240(a5)
    2898:	4dc7ae03          	lw	t3,1244(a5)
    289c:	4e07a303          	lw	t1,1248(a5)
    28a0:	4e47a883          	lw	a7,1252(a5)
    28a4:	4e87a803          	lw	a6,1256(a5)
    28a8:	76a42c23          	sw	a0,1912(s0)
    28ac:	4ec7a503          	lw	a0,1260(a5)
    28b0:	76b42e23          	sw	a1,1916(s0)
    28b4:	78c42023          	sw	a2,1920(s0)
    28b8:	78d42223          	sw	a3,1924(s0)
    28bc:	4f47a603          	lw	a2,1268(a5)
    28c0:	4f87a683          	lw	a3,1272(a5)
    28c4:	4f07a583          	lw	a1,1264(a5)
    28c8:	4fc7a783          	lw	a5,1276(a5)
    28cc:	79742423          	sw	s7,1928(s0)
    28d0:	79642623          	sw	s6,1932(s0)
    28d4:	7aa42a23          	sw	a0,1972(s0)
    28d8:	78742823          	sw	t2,1936(s0)
    28dc:	78542a23          	sw	t0,1940(s0)
    28e0:	79f42c23          	sw	t6,1944(s0)
    28e4:	79e42e23          	sw	t5,1948(s0)
    28e8:	7bd42023          	sw	t4,1952(s0)
    28ec:	7bc42223          	sw	t3,1956(s0)
    28f0:	7a642423          	sw	t1,1960(s0)
    28f4:	7b142623          	sw	a7,1964(s0)
    28f8:	7b042823          	sw	a6,1968(s0)
    28fc:	7ab42c23          	sw	a1,1976(s0)
    2900:	7cf42223          	sw	a5,1988(s0)
    2904:	0009e7b7          	lui	a5,0x9e
    2908:	9087a783          	lw	a5,-1784(a5) # 9d908 <CSWTCH.6+0x534>
    290c:	01242423          	sw	s2,8(s0)
    2910:	01442623          	sw	s4,12(s0)
    2914:	01542823          	sw	s5,16(s0)
    2918:	01342c23          	sw	s3,24(s0)
    291c:	01442e23          	sw	s4,28(s0)
    2920:	03542023          	sw	s5,32(s0)
    2924:	03342423          	sw	s3,40(s0)
    2928:	02942623          	sw	s1,44(s0)
    292c:	03542823          	sw	s5,48(s0)
    2930:	03242c23          	sw	s2,56(s0)
    2934:	02942e23          	sw	s1,60(s0)
    2938:	05542023          	sw	s5,64(s0)
    293c:	05242423          	sw	s2,72(s0)
    2940:	05442623          	sw	s4,76(s0)
    2944:	05342c23          	sw	s3,88(s0)
    2948:	05442e23          	sw	s4,92(s0)
    294c:	07342423          	sw	s3,104(s0)
    2950:	06942623          	sw	s1,108(s0)
    2954:	7ac42e23          	sw	a2,1980(s0)
    2958:	7cd42023          	sw	a3,1984(s0)
    295c:	00f42a23          	sw	a5,20(s0)
    2960:	02f42223          	sw	a5,36(s0)
    2964:	02f42a23          	sw	a5,52(s0)
    2968:	04f42223          	sw	a5,68(s0)
    296c:	04e42823          	sw	a4,80(s0)
    2970:	04f42a23          	sw	a5,84(s0)
    2974:	06e42023          	sw	a4,96(s0)
    2978:	06f42223          	sw	a5,100(s0)
    297c:	06e42823          	sw	a4,112(s0)
    2980:	06f42a23          	sw	a5,116(s0)
    2984:	07242c23          	sw	s2,120(s0)
    2988:	00040513          	mv	a0,s0
    298c:	06942e23          	sw	s1,124(s0)
    2990:	02c12083          	lw	ra,44(sp)
    2994:	08e42023          	sw	a4,128(s0)
    2998:	08f42223          	sw	a5,132(s0)
    299c:	02812403          	lw	s0,40(sp)
    29a0:	02412483          	lw	s1,36(sp)
    29a4:	02012903          	lw	s2,32(sp)
    29a8:	01c12983          	lw	s3,28(sp)
    29ac:	01812a03          	lw	s4,24(sp)
    29b0:	01412a83          	lw	s5,20(sp)
    29b4:	01012b03          	lw	s6,16(sp)
    29b8:	00c12b83          	lw	s7,12(sp)
    29bc:	00812c03          	lw	s8,8(sp)
    29c0:	03010113          	addi	sp,sp,48
    29c4:	00008067          	ret

000029c8 <update_scene>:
    29c8:	0009d7b7          	lui	a5,0x9d
    29cc:	3b17c783          	lbu	a5,945(a5) # 9d3b1 <sw0>
    29d0:	fe010113          	addi	sp,sp,-32
    29d4:	00812c23          	sw	s0,24(sp)
    29d8:	00912a23          	sw	s1,20(sp)
    29dc:	00112e23          	sw	ra,28(sp)
    29e0:	00050493          	mv	s1,a0
    29e4:	00058413          	mv	s0,a1
    29e8:	06079663          	bnez	a5,2a54 <update_scene+0x8c>
    29ec:	0009d7b7          	lui	a5,0x9d
    29f0:	3b07c783          	lbu	a5,944(a5) # 9d3b0 <sw1>
    29f4:	08079063          	bnez	a5,2a74 <update_scene+0xac>
    29f8:	0009d7b7          	lui	a5,0x9d
    29fc:	3af7c783          	lbu	a5,943(a5) # 9d3af <sw2>
    2a00:	08079c63          	bnez	a5,2a98 <update_scene+0xd0>
    2a04:	0009d7b7          	lui	a5,0x9d
    2a08:	3ae7c783          	lbu	a5,942(a5) # 9d3ae <sw3>
    2a0c:	0c079a63          	bnez	a5,2ae0 <update_scene+0x118>
    2a10:	0009d7b7          	lui	a5,0x9d
    2a14:	3ad7c783          	lbu	a5,941(a5) # 9d3ad <sw4>
    2a18:	10079863          	bnez	a5,2b28 <update_scene+0x160>
    2a1c:	0009d7b7          	lui	a5,0x9d
    2a20:	3ac7c783          	lbu	a5,940(a5) # 9d3ac <sw5>
    2a24:	14079663          	bnez	a5,2b70 <update_scene+0x1a8>
    2a28:	0009d7b7          	lui	a5,0x9d
    2a2c:	3ab7c783          	lbu	a5,939(a5) # 9d3ab <sw6>
    2a30:	18079463          	bnez	a5,2bb8 <update_scene+0x1f0>
    2a34:	0009d7b7          	lui	a5,0x9d
    2a38:	3aa7c783          	lbu	a5,938(a5) # 9d3aa <sw7>
    2a3c:	1a079063          	bnez	a5,2bdc <update_scene+0x214>
    2a40:	01c12083          	lw	ra,28(sp)
    2a44:	01812403          	lw	s0,24(sp)
    2a48:	01412483          	lw	s1,20(sp)
    2a4c:	02010113          	addi	sp,sp,32
    2a50:	00008067          	ret
    2a54:	0009e7b7          	lui	a5,0x9e
    2a58:	9087a603          	lw	a2,-1784(a5) # 9d908 <CSWTCH.6+0x534>
    2a5c:	00000693          	li	a3,0
    2a60:	00068593          	mv	a1,a3
    2a64:	a49fe0ef          	jal	14ac <translate_scene>
    2a68:	0009d7b7          	lui	a5,0x9d
    2a6c:	3b07c783          	lbu	a5,944(a5) # 9d3b0 <sw1>
    2a70:	f80784e3          	beqz	a5,29f8 <update_scene+0x30>
    2a74:	0009e7b7          	lui	a5,0x9e
    2a78:	91c7a603          	lw	a2,-1764(a5) # 9d91c <CSWTCH.6+0x548>
    2a7c:	00000693          	li	a3,0
    2a80:	00068593          	mv	a1,a3
    2a84:	00048513          	mv	a0,s1
    2a88:	a25fe0ef          	jal	14ac <translate_scene>
    2a8c:	0009d7b7          	lui	a5,0x9d
    2a90:	3af7c783          	lbu	a5,943(a5) # 9d3af <sw2>
    2a94:	f60788e3          	beqz	a5,2a04 <update_scene+0x3c>
    2a98:	0009e737          	lui	a4,0x9e
    2a9c:	00c42783          	lw	a5,12(s0)
    2aa0:	00042303          	lw	t1,0(s0)
    2aa4:	00442883          	lw	a7,4(s0)
    2aa8:	00842803          	lw	a6,8(s0)
    2aac:	92072603          	lw	a2,-1760(a4) # 9d920 <CSWTCH.6+0x54c>
    2ab0:	00000693          	li	a3,0
    2ab4:	00010713          	mv	a4,sp
    2ab8:	00068593          	mv	a1,a3
    2abc:	00048513          	mv	a0,s1
    2ac0:	00f12623          	sw	a5,12(sp)
    2ac4:	00612023          	sw	t1,0(sp)
    2ac8:	01112223          	sw	a7,4(sp)
    2acc:	01012423          	sw	a6,8(sp)
    2ad0:	8b9fe0ef          	jal	1388 <rotate_scene>
    2ad4:	0009d7b7          	lui	a5,0x9d
    2ad8:	3ae7c783          	lbu	a5,942(a5) # 9d3ae <sw3>
    2adc:	f2078ae3          	beqz	a5,2a10 <update_scene+0x48>
    2ae0:	0009e737          	lui	a4,0x9e
    2ae4:	00c42783          	lw	a5,12(s0)
    2ae8:	00042303          	lw	t1,0(s0)
    2aec:	00442883          	lw	a7,4(s0)
    2af0:	00842803          	lw	a6,8(s0)
    2af4:	92472603          	lw	a2,-1756(a4) # 9d924 <CSWTCH.6+0x550>
    2af8:	00000693          	li	a3,0
    2afc:	00010713          	mv	a4,sp
    2b00:	00068593          	mv	a1,a3
    2b04:	00048513          	mv	a0,s1
    2b08:	00f12623          	sw	a5,12(sp)
    2b0c:	00612023          	sw	t1,0(sp)
    2b10:	01112223          	sw	a7,4(sp)
    2b14:	01012423          	sw	a6,8(sp)
    2b18:	871fe0ef          	jal	1388 <rotate_scene>
    2b1c:	0009d7b7          	lui	a5,0x9d
    2b20:	3ad7c783          	lbu	a5,941(a5) # 9d3ad <sw4>
    2b24:	ee078ce3          	beqz	a5,2a1c <update_scene+0x54>
    2b28:	0009e737          	lui	a4,0x9e
    2b2c:	00c42783          	lw	a5,12(s0)
    2b30:	00042303          	lw	t1,0(s0)
    2b34:	00442883          	lw	a7,4(s0)
    2b38:	00842803          	lw	a6,8(s0)
    2b3c:	92072583          	lw	a1,-1760(a4) # 9d920 <CSWTCH.6+0x54c>
    2b40:	00000693          	li	a3,0
    2b44:	00010713          	mv	a4,sp
    2b48:	00068613          	mv	a2,a3
    2b4c:	00048513          	mv	a0,s1
    2b50:	00f12623          	sw	a5,12(sp)
    2b54:	00612023          	sw	t1,0(sp)
    2b58:	01112223          	sw	a7,4(sp)
    2b5c:	01012423          	sw	a6,8(sp)
    2b60:	829fe0ef          	jal	1388 <rotate_scene>
    2b64:	0009d7b7          	lui	a5,0x9d
    2b68:	3ac7c783          	lbu	a5,940(a5) # 9d3ac <sw5>
    2b6c:	ea078ee3          	beqz	a5,2a28 <update_scene+0x60>
    2b70:	0009e737          	lui	a4,0x9e
    2b74:	00c42783          	lw	a5,12(s0)
    2b78:	00042303          	lw	t1,0(s0)
    2b7c:	00442883          	lw	a7,4(s0)
    2b80:	00842803          	lw	a6,8(s0)
    2b84:	92472583          	lw	a1,-1756(a4) # 9d924 <CSWTCH.6+0x550>
    2b88:	00000693          	li	a3,0
    2b8c:	00010713          	mv	a4,sp
    2b90:	00068613          	mv	a2,a3
    2b94:	00048513          	mv	a0,s1
    2b98:	00f12623          	sw	a5,12(sp)
    2b9c:	00612023          	sw	t1,0(sp)
    2ba0:	01112223          	sw	a7,4(sp)
    2ba4:	01012423          	sw	a6,8(sp)
    2ba8:	fe0fe0ef          	jal	1388 <rotate_scene>
    2bac:	0009d7b7          	lui	a5,0x9d
    2bb0:	3ab7c783          	lbu	a5,939(a5) # 9d3ab <sw6>
    2bb4:	e80780e3          	beqz	a5,2a34 <update_scene+0x6c>
    2bb8:	0009e7b7          	lui	a5,0x9e
    2bbc:	91c7a683          	lw	a3,-1764(a5) # 9d91c <CSWTCH.6+0x548>
    2bc0:	00000613          	li	a2,0
    2bc4:	00060593          	mv	a1,a2
    2bc8:	00048513          	mv	a0,s1
    2bcc:	8e1fe0ef          	jal	14ac <translate_scene>
    2bd0:	0009d7b7          	lui	a5,0x9d
    2bd4:	3aa7c783          	lbu	a5,938(a5) # 9d3aa <sw7>
    2bd8:	e60784e3          	beqz	a5,2a40 <update_scene+0x78>
    2bdc:	01812403          	lw	s0,24(sp)
    2be0:	0009e7b7          	lui	a5,0x9e
    2be4:	01c12083          	lw	ra,28(sp)
    2be8:	9087a683          	lw	a3,-1784(a5) # 9d908 <CSWTCH.6+0x534>
    2bec:	00048513          	mv	a0,s1
    2bf0:	01412483          	lw	s1,20(sp)
    2bf4:	00000613          	li	a2,0
    2bf8:	00060593          	mv	a1,a2
    2bfc:	02010113          	addi	sp,sp,32
    2c00:	8adfe06f          	j	14ac <translate_scene>

00002c04 <update_config>:
    2c04:	0009d7b7          	lui	a5,0x9d
    2c08:	3a97c783          	lbu	a5,937(a5) # 9d3a9 <sw8>
    2c0c:	02078463          	beqz	a5,2c34 <update_config+0x30>
    2c10:	0009d7b7          	lui	a5,0x9d
    2c14:	00100713          	li	a4,1
    2c18:	3ae7ac23          	sw	a4,952(a5) # 9d3b8 <wireframe_enable>
    2c1c:	000077b7          	lui	a5,0x7
    2c20:	3807a823          	sw	zero,912(a5) # 7390 <rasterize_enable>
    2c24:	0009d737          	lui	a4,0x9d
    2c28:	00000793          	li	a5,0
    2c2c:	3af72a23          	sw	a5,948(a4) # 9d3b4 <zbuffer_enable>
    2c30:	00008067          	ret
    2c34:	0009d7b7          	lui	a5,0x9d
    2c38:	3a87c783          	lbu	a5,936(a5) # 9d3a8 <sw9>
    2c3c:	0009d737          	lui	a4,0x9d
    2c40:	3a072c23          	sw	zero,952(a4) # 9d3b8 <wireframe_enable>
    2c44:	00100693          	li	a3,1
    2c48:	00007737          	lui	a4,0x7
    2c4c:	38d72823          	sw	a3,912(a4) # 7390 <rasterize_enable>
    2c50:	00f037b3          	snez	a5,a5
    2c54:	0009d737          	lui	a4,0x9d
    2c58:	3af72a23          	sw	a5,948(a4) # 9d3b4 <zbuffer_enable>
    2c5c:	00008067          	ret

00002c60 <handle_interrupt>:
    2c60:	ff010113          	addi	sp,sp,-16
    2c64:	00812423          	sw	s0,8(sp)
    2c68:	00050413          	mv	s0,a0
    2c6c:	0009e537          	lui	a0,0x9e
    2c70:	9b850513          	addi	a0,a0,-1608 # 9d9b8 <CSWTCH.6+0x5e4>
    2c74:	00112623          	sw	ra,12(sp)
    2c78:	700010ef          	jal	4378 <print>
    2c7c:	01100793          	li	a5,17
    2c80:	04f40a63          	beq	s0,a5,2cd4 <handle_interrupt+0x74>
    2c84:	01200793          	li	a5,18
    2c88:	02f40263          	beq	s0,a5,2cac <handle_interrupt+0x4c>
    2c8c:	01000793          	li	a5,16
    2c90:	10f41663          	bne	s0,a5,2d9c <handle_interrupt+0x13c>
    2c94:	00812403          	lw	s0,8(sp)
    2c98:	00c12083          	lw	ra,12(sp)
    2c9c:	0009e537          	lui	a0,0x9e
    2ca0:	9d050513          	addi	a0,a0,-1584 # 9d9d0 <CSWTCH.6+0x5fc>
    2ca4:	01010113          	addi	sp,sp,16
    2ca8:	6d00106f          	j	4378 <print>
    2cac:	0009e537          	lui	a0,0x9e
    2cb0:	9e850513          	addi	a0,a0,-1560 # 9d9e8 <CSWTCH.6+0x614>
    2cb4:	6c4010ef          	jal	4378 <print>
    2cb8:	ab0fe0ef          	jal	f68 <reset_io>
    2cbc:	00c12083          	lw	ra,12(sp)
    2cc0:	00812403          	lw	s0,8(sp)
    2cc4:	000077b7          	lui	a5,0x7
    2cc8:	3807a623          	sw	zero,908(a5) # 738c <running>
    2ccc:	01010113          	addi	sp,sp,16
    2cd0:	00008067          	ret
    2cd4:	a94fe0ef          	jal	f68 <reset_io>
    2cd8:	0009e537          	lui	a0,0x9e
    2cdc:	9dc50513          	addi	a0,a0,-1572 # 9d9dc <CSWTCH.6+0x608>
    2ce0:	698010ef          	jal	4378 <print>
    2ce4:	aa0fe0ef          	jal	f84 <get_sw>
    2ce8:	00050413          	mv	s0,a0
    2cec:	aa8fe0ef          	jal	f94 <set_leds>
    2cf0:	40145313          	srai	t1,s0,0x1
    2cf4:	40245893          	srai	a7,s0,0x2
    2cf8:	40345813          	srai	a6,s0,0x3
    2cfc:	40445513          	srai	a0,s0,0x4
    2d00:	40545593          	srai	a1,s0,0x5
    2d04:	40645613          	srai	a2,s0,0x6
    2d08:	40745693          	srai	a3,s0,0x7
    2d0c:	40845713          	srai	a4,s0,0x8
    2d10:	40945793          	srai	a5,s0,0x9
    2d14:	0009de37          	lui	t3,0x9d
    2d18:	00147413          	andi	s0,s0,1
    2d1c:	3a8e08a3          	sb	s0,945(t3) # 9d3b1 <sw0>
    2d20:	00137313          	andi	t1,t1,1
    2d24:	0009de37          	lui	t3,0x9d
    2d28:	0018f893          	andi	a7,a7,1
    2d2c:	3a6e0823          	sb	t1,944(t3) # 9d3b0 <sw1>
    2d30:	0009d337          	lui	t1,0x9d
    2d34:	00187813          	andi	a6,a6,1
    2d38:	3b1307a3          	sb	a7,943(t1) # 9d3af <sw2>
    2d3c:	0009d8b7          	lui	a7,0x9d
    2d40:	00157513          	andi	a0,a0,1
    2d44:	3b088723          	sb	a6,942(a7) # 9d3ae <sw3>
    2d48:	0009d837          	lui	a6,0x9d
    2d4c:	0015f593          	andi	a1,a1,1
    2d50:	3aa806a3          	sb	a0,941(a6) # 9d3ad <sw4>
    2d54:	0009d537          	lui	a0,0x9d
    2d58:	00167613          	andi	a2,a2,1
    2d5c:	3ab50623          	sb	a1,940(a0) # 9d3ac <sw5>
    2d60:	0009d5b7          	lui	a1,0x9d
    2d64:	0016f693          	andi	a3,a3,1
    2d68:	3ac585a3          	sb	a2,939(a1) # 9d3ab <sw6>
    2d6c:	0009d637          	lui	a2,0x9d
    2d70:	00c12083          	lw	ra,12(sp)
    2d74:	00812403          	lw	s0,8(sp)
    2d78:	00177713          	andi	a4,a4,1
    2d7c:	3ad60523          	sb	a3,938(a2) # 9d3aa <sw7>
    2d80:	0009d6b7          	lui	a3,0x9d
    2d84:	3ae684a3          	sb	a4,937(a3) # 9d3a9 <sw8>
    2d88:	0017f793          	andi	a5,a5,1
    2d8c:	0009d737          	lui	a4,0x9d
    2d90:	3af70423          	sb	a5,936(a4) # 9d3a8 <sw9>
    2d94:	01010113          	addi	sp,sp,16
    2d98:	00008067          	ret
    2d9c:	0009e537          	lui	a0,0x9e
    2da0:	9f450513          	addi	a0,a0,-1548 # 9d9f4 <CSWTCH.6+0x620>
    2da4:	5d4010ef          	jal	4378 <print>
    2da8:	00040513          	mv	a0,s0
    2dac:	604010ef          	jal	43b0 <print_dec>
    2db0:	00812403          	lw	s0,8(sp)
    2db4:	00c12083          	lw	ra,12(sp)
    2db8:	0009e537          	lui	a0,0x9e
    2dbc:	a1050513          	addi	a0,a0,-1520 # 9da10 <CSWTCH.6+0x63c>
    2dc0:	01010113          	addi	sp,sp,16
    2dc4:	5b40106f          	j	4378 <print>

00002dc8 <main>:
    2dc8:	fff7e2b7          	lui	t0,0xfff7e
    2dcc:	df010113          	addi	sp,sp,-528
    2dd0:	0009e537          	lui	a0,0x9e
    2dd4:	20112623          	sw	ra,524(sp)
    2dd8:	9ac50513          	addi	a0,a0,-1620 # 9d9ac <CSWTCH.6+0x5d8>
    2ddc:	20812423          	sw	s0,520(sp)
    2de0:	20912223          	sw	s1,516(sp)
    2de4:	21212023          	sw	s2,512(sp)
    2de8:	1f312e23          	sw	s3,508(sp)
    2dec:	1f412c23          	sw	s4,504(sp)
    2df0:	1f512a23          	sw	s5,500(sp)
    2df4:	1f612823          	sw	s6,496(sp)
    2df8:	1f712623          	sw	s7,492(sp)
    2dfc:	1f812423          	sw	s8,488(sp)
    2e00:	00510133          	add	sp,sp,t0
    2e04:	574010ef          	jal	4378 <print>
    2e08:	910fe0ef          	jal	f18 <init_io>
    2e0c:	becfe0ef          	jal	11f8 <clear_pbuffer>
    2e10:	c10fe0ef          	jal	1220 <clear_zbuffer>
    2e14:	000824b7          	lui	s1,0x82
    2e18:	fff81537          	lui	a0,0xfff81
    2e1c:	0009e7b7          	lui	a5,0x9e
    2e20:	39c50513          	addi	a0,a0,924 # fff8139c <_stack_end+0xffde3900>
    2e24:	1d048613          	addi	a2,s1,464 # 821d0 <pbuffer+0x2fe2c>
    2e28:	9287a983          	lw	s3,-1752(a5) # 9d928 <CSWTCH.6+0x554>
    2e2c:	01010593          	addi	a1,sp,16
    2e30:	00a60633          	add	a2,a2,a0
    2e34:	fff807b7          	lui	a5,0xfff80
    2e38:	00b60a33          	add	s4,a2,a1
    2e3c:	24078793          	addi	a5,a5,576 # fff80240 <_stack_end+0xffde27a4>
    2e40:	1d048613          	addi	a2,s1,464
    2e44:	00f60633          	add	a2,a2,a5
    2e48:	00b607b3          	add	a5,a2,a1
    2e4c:	00f12023          	sw	a5,0(sp)
    2e50:	fff80437          	lui	s0,0xfff80
    2e54:	1d048793          	addi	a5,s1,464
    2e58:	0009e837          	lui	a6,0x9e
    2e5c:	008787b3          	add	a5,a5,s0
    2e60:	00b78433          	add	s0,a5,a1
    2e64:	92c82783          	lw	a5,-1748(a6) # 9d92c <CSWTCH.6+0x558>
    2e68:	0009e6b7          	lui	a3,0x9e
    2e6c:	0009e737          	lui	a4,0x9e
    2e70:	24f42c23          	sw	a5,600(s0) # fff80258 <_stack_end+0xffde27bc>
    2e74:	9306a783          	lw	a5,-1744(a3) # 9d930 <CSWTCH.6+0x55c>
    2e78:	00012583          	lw	a1,0(sp)
    2e7c:	00098613          	mv	a2,s3
    2e80:	24f42e23          	sw	a5,604(s0)
    2e84:	90872783          	lw	a5,-1784(a4) # 9d908 <CSWTCH.6+0x534>
    2e88:	000a0513          	mv	a0,s4
    2e8c:	25342a23          	sw	s3,596(s0)
    2e90:	26f42023          	sw	a5,608(s0)
    2e94:	417007b7          	lui	a5,0x41700
    2e98:	24f42023          	sw	a5,576(s0)
    2e9c:	41f007b7          	lui	a5,0x41f00
    2ea0:	24f42223          	sw	a5,580(s0)
    2ea4:	c2e607b7          	lui	a5,0xc2e60
    2ea8:	24f42423          	sw	a5,584(s0)
    2eac:	3f8007b7          	lui	a5,0x3f800
    2eb0:	24f42623          	sw	a5,588(s0)
    2eb4:	935fe0ef          	jal	17e8 <create_grass_block>
    2eb8:	25842703          	lw	a4,600(s0)
    2ebc:	25442683          	lw	a3,596(s0)
    2ec0:	26042783          	lw	a5,608(s0)
    2ec4:	0009e837          	lui	a6,0x9e
    2ec8:	fff82537          	lui	a0,0xfff82
    2ecc:	00012583          	lw	a1,0(sp)
    2ed0:	93482803          	lw	a6,-1740(a6) # 9d934 <CSWTCH.6+0x560>
    2ed4:	66450513          	addi	a0,a0,1636 # fff82664 <_stack_end+0xffde4bc8>
    2ed8:	1d048893          	addi	a7,s1,464
    2edc:	00a888b3          	add	a7,a7,a0
    2ee0:	24e42223          	sw	a4,580(s0)
    2ee4:	01010513          	addi	a0,sp,16
    2ee8:	c2aa0737          	lui	a4,0xc2aa0
    2eec:	00a88533          	add	a0,a7,a0
    2ef0:	00098613          	mv	a2,s3
    2ef4:	24d42023          	sw	a3,576(s0)
    2ef8:	24e42423          	sw	a4,584(s0)
    2efc:	24f42623          	sw	a5,588(s0)
    2f00:	25042e23          	sw	a6,604(s0)
    2f04:	8e5fe0ef          	jal	17e8 <create_grass_block>
    2f08:	0009e837          	lui	a6,0x9e
    2f0c:	93882803          	lw	a6,-1736(a6) # 9d938 <CSWTCH.6+0x564>
    2f10:	25842683          	lw	a3,600(s0)
    2f14:	25c42703          	lw	a4,604(s0)
    2f18:	26042783          	lw	a5,608(s0)
    2f1c:	fff84537          	lui	a0,0xfff84
    2f20:	00012583          	lw	a1,0(sp)
    2f24:	92c50513          	addi	a0,a0,-1748 # fff8392c <_stack_end+0xffde5e90>
    2f28:	1d048893          	addi	a7,s1,464
    2f2c:	00a888b3          	add	a7,a7,a0
    2f30:	25042a23          	sw	a6,596(s0)
    2f34:	01010513          	addi	a0,sp,16
    2f38:	c1700837          	lui	a6,0xc1700
    2f3c:	00a88533          	add	a0,a7,a0
    2f40:	00098613          	mv	a2,s3
    2f44:	25042023          	sw	a6,576(s0)
    2f48:	24d42223          	sw	a3,580(s0)
    2f4c:	24e42423          	sw	a4,584(s0)
    2f50:	24f42623          	sw	a5,588(s0)
    2f54:	895fe0ef          	jal	17e8 <create_grass_block>
    2f58:	0009e737          	lui	a4,0x9e
    2f5c:	94472703          	lw	a4,-1724(a4) # 9d944 <CSWTCH.6+0x570>
    2f60:	0009e7b7          	lui	a5,0x9e
    2f64:	9487a903          	lw	s2,-1720(a5) # 9d948 <CSWTCH.6+0x574>
    2f68:	24e42e23          	sw	a4,604(s0)
    2f6c:	26042783          	lw	a5,608(s0)
    2f70:	41c80737          	lui	a4,0x41c80
    2f74:	0009e837          	lui	a6,0x9e
    2f78:	0009e6b7          	lui	a3,0x9e
    2f7c:	fff85537          	lui	a0,0xfff85
    2f80:	00012583          	lw	a1,0(sp)
    2f84:	93c82803          	lw	a6,-1732(a6) # 9d93c <CSWTCH.6+0x568>
    2f88:	9406a683          	lw	a3,-1728(a3) # 9d940 <CSWTCH.6+0x56c>
    2f8c:	bf450513          	addi	a0,a0,-1036 # fff84bf4 <_stack_end+0xffde7158>
    2f90:	1d048893          	addi	a7,s1,464
    2f94:	24e42023          	sw	a4,576(s0)
    2f98:	41200737          	lui	a4,0x41200
    2f9c:	00a888b3          	add	a7,a7,a0
    2fa0:	24e42223          	sw	a4,580(s0)
    2fa4:	01010513          	addi	a0,sp,16
    2fa8:	c2fa0737          	lui	a4,0xc2fa0
    2fac:	00a88533          	add	a0,a7,a0
    2fb0:	00090613          	mv	a2,s2
    2fb4:	24e42423          	sw	a4,584(s0)
    2fb8:	24f42623          	sw	a5,588(s0)
    2fbc:	25042a23          	sw	a6,596(s0)
    2fc0:	24d42c23          	sw	a3,600(s0)
    2fc4:	914ff0ef          	jal	20d8 <create_wood_block>
    2fc8:	00048a93          	mv	s5,s1
    2fcc:	25442683          	lw	a3,596(s0)
    2fd0:	25c42703          	lw	a4,604(s0)
    2fd4:	26042783          	lw	a5,608(s0)
    2fd8:	fff86537          	lui	a0,0xfff86
    2fdc:	00012583          	lw	a1,0(sp)
    2fe0:	ebc50513          	addi	a0,a0,-324 # fff85ebc <_stack_end+0xffde8420>
    2fe4:	1d0a8813          	addi	a6,s5,464
    2fe8:	00a80833          	add	a6,a6,a0
    2fec:	01010513          	addi	a0,sp,16
    2ff0:	00000493          	li	s1,0
    2ff4:	00a80533          	add	a0,a6,a0
    2ff8:	00090613          	mv	a2,s2
    2ffc:	24d42023          	sw	a3,576(s0)
    3000:	24e42423          	sw	a4,584(s0)
    3004:	24f42623          	sw	a5,588(s0)
    3008:	24042223          	sw	zero,580(s0)
    300c:	24942c23          	sw	s1,600(s0)
    3010:	8c8ff0ef          	jal	20d8 <create_wood_block>
    3014:	25442683          	lw	a3,596(s0)
    3018:	25c42703          	lw	a4,604(s0)
    301c:	26042783          	lw	a5,608(s0)
    3020:	0009e837          	lui	a6,0x9e
    3024:	fff87537          	lui	a0,0xfff87
    3028:	00012583          	lw	a1,0(sp)
    302c:	94c82803          	lw	a6,-1716(a6) # 9d94c <CSWTCH.6+0x578>
    3030:	18450513          	addi	a0,a0,388 # fff87184 <_stack_end+0xffde96e8>
    3034:	1d0a8893          	addi	a7,s5,464
    3038:	00a888b3          	add	a7,a7,a0
    303c:	24d42023          	sw	a3,576(s0)
    3040:	01010513          	addi	a0,sp,16
    3044:	c12006b7          	lui	a3,0xc1200
    3048:	00a88533          	add	a0,a7,a0
    304c:	00090613          	mv	a2,s2
    3050:	24d42223          	sw	a3,580(s0)
    3054:	24e42423          	sw	a4,584(s0)
    3058:	24f42623          	sw	a5,588(s0)
    305c:	25042c23          	sw	a6,600(s0)
    3060:	878ff0ef          	jal	20d8 <create_wood_block>
    3064:	25442683          	lw	a3,596(s0)
    3068:	25c42703          	lw	a4,604(s0)
    306c:	26042783          	lw	a5,608(s0)
    3070:	0009e837          	lui	a6,0x9e
    3074:	fff88537          	lui	a0,0xfff88
    3078:	00012583          	lw	a1,0(sp)
    307c:	95082803          	lw	a6,-1712(a6) # 9d950 <CSWTCH.6+0x57c>
    3080:	44c50513          	addi	a0,a0,1100 # fff8844c <_stack_end+0xffdea9b0>
    3084:	1d0a8893          	addi	a7,s5,464
    3088:	00a888b3          	add	a7,a7,a0
    308c:	24d42023          	sw	a3,576(s0)
    3090:	01010513          	addi	a0,sp,16
    3094:	c1f006b7          	lui	a3,0xc1f00
    3098:	00a88533          	add	a0,a7,a0
    309c:	00098613          	mv	a2,s3
    30a0:	24d42223          	sw	a3,580(s0)
    30a4:	24e42423          	sw	a4,584(s0)
    30a8:	24f42623          	sw	a5,588(s0)
    30ac:	25042c23          	sw	a6,600(s0)
    30b0:	ca0ff0ef          	jal	2550 <create_leaf_block>
    30b4:	0009e7b7          	lui	a5,0x9e
    30b8:	fff8b537          	lui	a0,0xfff8b
    30bc:	9547a783          	lw	a5,-1708(a5) # 9d954 <CSWTCH.6+0x580>
    30c0:	9dc50513          	addi	a0,a0,-1572 # fff8a9dc <_stack_end+0xffdecf40>
    30c4:	1d0a8713          	addi	a4,s5,464
    30c8:	00a70733          	add	a4,a4,a0
    30cc:	01010693          	addi	a3,sp,16
    30d0:	00d70533          	add	a0,a4,a3
    30d4:	24f42e23          	sw	a5,604(s0)
    30d8:	24942a23          	sw	s1,596(s0)
    30dc:	24942c23          	sw	s1,600(s0)
    30e0:	aa0fe0ef          	jal	1380 <create_scene>
    30e4:	fff7f7b7          	lui	a5,0xfff7f
    30e8:	f7078793          	addi	a5,a5,-144 # fff7ef70 <_stack_end+0xffde14d4>
    30ec:	00001737          	lui	a4,0x1
    30f0:	1d0a8693          	addi	a3,s5,464
    30f4:	00f686b3          	add	a3,a3,a5
    30f8:	2c070713          	addi	a4,a4,704 # 12c0 <update_VGA+0x78>
    30fc:	01010793          	addi	a5,sp,16
    3100:	000a0513          	mv	a0,s4
    3104:	00f687b3          	add	a5,a3,a5
    3108:	00ea0733          	add	a4,s4,a4
    310c:	00052803          	lw	a6,0(a0)
    3110:	00452583          	lw	a1,4(a0)
    3114:	00852603          	lw	a2,8(a0)
    3118:	00c52683          	lw	a3,12(a0)
    311c:	0107a023          	sw	a6,0(a5)
    3120:	00b7a223          	sw	a1,4(a5)
    3124:	00c7a423          	sw	a2,8(a5)
    3128:	00d7a623          	sw	a3,12(a5)
    312c:	01050513          	addi	a0,a0,16
    3130:	01078793          	addi	a5,a5,16
    3134:	fce51ce3          	bne	a0,a4,310c <main+0x344>
    3138:	00082437          	lui	s0,0x82
    313c:	fff8b5b7          	lui	a1,0xfff8b
    3140:	9dc58593          	addi	a1,a1,-1572 # fff8a9dc <_stack_end+0xffdecf40>
    3144:	1d040613          	addi	a2,s0,464 # 821d0 <pbuffer+0x2fe2c>
    3148:	00052683          	lw	a3,0(a0)
    314c:	00452703          	lw	a4,4(a0)
    3150:	00b60633          	add	a2,a2,a1
    3154:	fff7f537          	lui	a0,0xfff7f
    3158:	01010593          	addi	a1,sp,16
    315c:	00b605b3          	add	a1,a2,a1
    3160:	f7050513          	addi	a0,a0,-144 # fff7ef70 <_stack_end+0xffde14d4>
    3164:	1d040613          	addi	a2,s0,464
    3168:	00a60633          	add	a2,a2,a0
    316c:	01010513          	addi	a0,sp,16
    3170:	00d7a023          	sw	a3,0(a5)
    3174:	00e7a223          	sw	a4,4(a5)
    3178:	00a60533          	add	a0,a2,a0
    317c:	bdcfe0ef          	jal	1558 <add_to_scene>
    3180:	fff827b7          	lui	a5,0xfff82
    3184:	66478793          	addi	a5,a5,1636 # fff82664 <_stack_end+0xffde4bc8>
    3188:	fff7f737          	lui	a4,0xfff7f
    318c:	1d040593          	addi	a1,s0,464
    3190:	f7070713          	addi	a4,a4,-144 # fff7ef70 <_stack_end+0xffde14d4>
    3194:	00f585b3          	add	a1,a1,a5
    3198:	000016b7          	lui	a3,0x1
    319c:	01010793          	addi	a5,sp,16
    31a0:	1d040613          	addi	a2,s0,464
    31a4:	00e60633          	add	a2,a2,a4
    31a8:	00f587b3          	add	a5,a1,a5
    31ac:	2c068693          	addi	a3,a3,704 # 12c0 <update_VGA+0x78>
    31b0:	01010713          	addi	a4,sp,16
    31b4:	00e60733          	add	a4,a2,a4
    31b8:	00d786b3          	add	a3,a5,a3
    31bc:	0007a803          	lw	a6,0(a5)
    31c0:	0047a503          	lw	a0,4(a5)
    31c4:	0087a583          	lw	a1,8(a5)
    31c8:	00c7a603          	lw	a2,12(a5)
    31cc:	01072023          	sw	a6,0(a4)
    31d0:	00a72223          	sw	a0,4(a4)
    31d4:	00b72423          	sw	a1,8(a4)
    31d8:	00c72623          	sw	a2,12(a4)
    31dc:	01078793          	addi	a5,a5,16
    31e0:	01070713          	addi	a4,a4,16
    31e4:	fcd79ce3          	bne	a5,a3,31bc <main+0x3f4>
    31e8:	00082437          	lui	s0,0x82
    31ec:	fff8b5b7          	lui	a1,0xfff8b
    31f0:	9dc58593          	addi	a1,a1,-1572 # fff8a9dc <_stack_end+0xffdecf40>
    31f4:	1d040613          	addi	a2,s0,464 # 821d0 <pbuffer+0x2fe2c>
    31f8:	0007a683          	lw	a3,0(a5)
    31fc:	00b60633          	add	a2,a2,a1
    3200:	0047a783          	lw	a5,4(a5)
    3204:	fff7f537          	lui	a0,0xfff7f
    3208:	01010593          	addi	a1,sp,16
    320c:	00b605b3          	add	a1,a2,a1
    3210:	f7050513          	addi	a0,a0,-144 # fff7ef70 <_stack_end+0xffde14d4>
    3214:	1d040613          	addi	a2,s0,464
    3218:	00a60633          	add	a2,a2,a0
    321c:	01010513          	addi	a0,sp,16
    3220:	00d72023          	sw	a3,0(a4)
    3224:	00f72223          	sw	a5,4(a4)
    3228:	00a60533          	add	a0,a2,a0
    322c:	b2cfe0ef          	jal	1558 <add_to_scene>
    3230:	fff847b7          	lui	a5,0xfff84
    3234:	92c78793          	addi	a5,a5,-1748 # fff8392c <_stack_end+0xffde5e90>
    3238:	fff7f737          	lui	a4,0xfff7f
    323c:	1d040593          	addi	a1,s0,464
    3240:	f7070713          	addi	a4,a4,-144 # fff7ef70 <_stack_end+0xffde14d4>
    3244:	00f585b3          	add	a1,a1,a5
    3248:	000016b7          	lui	a3,0x1
    324c:	01010793          	addi	a5,sp,16
    3250:	1d040613          	addi	a2,s0,464
    3254:	00e60633          	add	a2,a2,a4
    3258:	00f587b3          	add	a5,a1,a5
    325c:	2c068693          	addi	a3,a3,704 # 12c0 <update_VGA+0x78>
    3260:	01010713          	addi	a4,sp,16
    3264:	00e60733          	add	a4,a2,a4
    3268:	00d786b3          	add	a3,a5,a3
    326c:	0007a803          	lw	a6,0(a5)
    3270:	0047a503          	lw	a0,4(a5)
    3274:	0087a583          	lw	a1,8(a5)
    3278:	00c7a603          	lw	a2,12(a5)
    327c:	01072023          	sw	a6,0(a4)
    3280:	00a72223          	sw	a0,4(a4)
    3284:	00b72423          	sw	a1,8(a4)
    3288:	00c72623          	sw	a2,12(a4)
    328c:	01078793          	addi	a5,a5,16
    3290:	01070713          	addi	a4,a4,16
    3294:	fcd79ce3          	bne	a5,a3,326c <main+0x4a4>
    3298:	00082437          	lui	s0,0x82
    329c:	fff8b5b7          	lui	a1,0xfff8b
    32a0:	9dc58593          	addi	a1,a1,-1572 # fff8a9dc <_stack_end+0xffdecf40>
    32a4:	1d040613          	addi	a2,s0,464 # 821d0 <pbuffer+0x2fe2c>
    32a8:	0007a683          	lw	a3,0(a5)
    32ac:	00b60633          	add	a2,a2,a1
    32b0:	0047a783          	lw	a5,4(a5)
    32b4:	fff7f537          	lui	a0,0xfff7f
    32b8:	01010593          	addi	a1,sp,16
    32bc:	00b605b3          	add	a1,a2,a1
    32c0:	f7050513          	addi	a0,a0,-144 # fff7ef70 <_stack_end+0xffde14d4>
    32c4:	1d040613          	addi	a2,s0,464
    32c8:	00a60633          	add	a2,a2,a0
    32cc:	01010513          	addi	a0,sp,16
    32d0:	00d72023          	sw	a3,0(a4)
    32d4:	00f72223          	sw	a5,4(a4)
    32d8:	00a60533          	add	a0,a2,a0
    32dc:	a7cfe0ef          	jal	1558 <add_to_scene>
    32e0:	fff857b7          	lui	a5,0xfff85
    32e4:	bf478793          	addi	a5,a5,-1036 # fff84bf4 <_stack_end+0xffde7158>
    32e8:	fff7f737          	lui	a4,0xfff7f
    32ec:	1d040593          	addi	a1,s0,464
    32f0:	f7070713          	addi	a4,a4,-144 # fff7ef70 <_stack_end+0xffde14d4>
    32f4:	00f585b3          	add	a1,a1,a5
    32f8:	000016b7          	lui	a3,0x1
    32fc:	01010793          	addi	a5,sp,16
    3300:	1d040613          	addi	a2,s0,464
    3304:	00e60633          	add	a2,a2,a4
    3308:	00f587b3          	add	a5,a1,a5
    330c:	2c068693          	addi	a3,a3,704 # 12c0 <update_VGA+0x78>
    3310:	01010713          	addi	a4,sp,16
    3314:	00e60733          	add	a4,a2,a4
    3318:	00d786b3          	add	a3,a5,a3
    331c:	0007a803          	lw	a6,0(a5)
    3320:	0047a503          	lw	a0,4(a5)
    3324:	0087a583          	lw	a1,8(a5)
    3328:	00c7a603          	lw	a2,12(a5)
    332c:	01072023          	sw	a6,0(a4)
    3330:	00a72223          	sw	a0,4(a4)
    3334:	00b72423          	sw	a1,8(a4)
    3338:	00c72623          	sw	a2,12(a4)
    333c:	01078793          	addi	a5,a5,16
    3340:	01070713          	addi	a4,a4,16
    3344:	fcd79ce3          	bne	a5,a3,331c <main+0x554>
    3348:	00082437          	lui	s0,0x82
    334c:	fff8b5b7          	lui	a1,0xfff8b
    3350:	9dc58593          	addi	a1,a1,-1572 # fff8a9dc <_stack_end+0xffdecf40>
    3354:	1d040613          	addi	a2,s0,464 # 821d0 <pbuffer+0x2fe2c>
    3358:	0007a683          	lw	a3,0(a5)
    335c:	00b60633          	add	a2,a2,a1
    3360:	0047a783          	lw	a5,4(a5)
    3364:	fff7f537          	lui	a0,0xfff7f
    3368:	01010593          	addi	a1,sp,16
    336c:	00b605b3          	add	a1,a2,a1
    3370:	f7050513          	addi	a0,a0,-144 # fff7ef70 <_stack_end+0xffde14d4>
    3374:	1d040613          	addi	a2,s0,464
    3378:	00a60633          	add	a2,a2,a0
    337c:	01010513          	addi	a0,sp,16
    3380:	00d72023          	sw	a3,0(a4)
    3384:	00f72223          	sw	a5,4(a4)
    3388:	00a60533          	add	a0,a2,a0
    338c:	9ccfe0ef          	jal	1558 <add_to_scene>
    3390:	fff867b7          	lui	a5,0xfff86
    3394:	ebc78793          	addi	a5,a5,-324 # fff85ebc <_stack_end+0xffde8420>
    3398:	fff7f737          	lui	a4,0xfff7f
    339c:	1d040593          	addi	a1,s0,464
    33a0:	f7070713          	addi	a4,a4,-144 # fff7ef70 <_stack_end+0xffde14d4>
    33a4:	00f585b3          	add	a1,a1,a5
    33a8:	000016b7          	lui	a3,0x1
    33ac:	01010793          	addi	a5,sp,16
    33b0:	1d040613          	addi	a2,s0,464
    33b4:	00e60633          	add	a2,a2,a4
    33b8:	00f587b3          	add	a5,a1,a5
    33bc:	2c068693          	addi	a3,a3,704 # 12c0 <update_VGA+0x78>
    33c0:	01010713          	addi	a4,sp,16
    33c4:	00e60733          	add	a4,a2,a4
    33c8:	00d786b3          	add	a3,a5,a3
    33cc:	0007a803          	lw	a6,0(a5)
    33d0:	0047a503          	lw	a0,4(a5)
    33d4:	0087a583          	lw	a1,8(a5)
    33d8:	00c7a603          	lw	a2,12(a5)
    33dc:	01072023          	sw	a6,0(a4)
    33e0:	00a72223          	sw	a0,4(a4)
    33e4:	00b72423          	sw	a1,8(a4)
    33e8:	00c72623          	sw	a2,12(a4)
    33ec:	01078793          	addi	a5,a5,16
    33f0:	01070713          	addi	a4,a4,16
    33f4:	fcd79ce3          	bne	a5,a3,33cc <main+0x604>
    33f8:	00082437          	lui	s0,0x82
    33fc:	fff8b5b7          	lui	a1,0xfff8b
    3400:	9dc58593          	addi	a1,a1,-1572 # fff8a9dc <_stack_end+0xffdecf40>
    3404:	1d040613          	addi	a2,s0,464 # 821d0 <pbuffer+0x2fe2c>
    3408:	0007a683          	lw	a3,0(a5)
    340c:	00b60633          	add	a2,a2,a1
    3410:	0047a783          	lw	a5,4(a5)
    3414:	fff7f537          	lui	a0,0xfff7f
    3418:	01010593          	addi	a1,sp,16
    341c:	00b605b3          	add	a1,a2,a1
    3420:	f7050513          	addi	a0,a0,-144 # fff7ef70 <_stack_end+0xffde14d4>
    3424:	1d040613          	addi	a2,s0,464
    3428:	00a60633          	add	a2,a2,a0
    342c:	01010513          	addi	a0,sp,16
    3430:	00d72023          	sw	a3,0(a4)
    3434:	00f72223          	sw	a5,4(a4)
    3438:	00a60533          	add	a0,a2,a0
    343c:	91cfe0ef          	jal	1558 <add_to_scene>
    3440:	fff877b7          	lui	a5,0xfff87
    3444:	18478793          	addi	a5,a5,388 # fff87184 <_stack_end+0xffde96e8>
    3448:	fff7f737          	lui	a4,0xfff7f
    344c:	1d040593          	addi	a1,s0,464
    3450:	f7070713          	addi	a4,a4,-144 # fff7ef70 <_stack_end+0xffde14d4>
    3454:	00f585b3          	add	a1,a1,a5
    3458:	000016b7          	lui	a3,0x1
    345c:	01010793          	addi	a5,sp,16
    3460:	1d040613          	addi	a2,s0,464
    3464:	00e60633          	add	a2,a2,a4
    3468:	00f587b3          	add	a5,a1,a5
    346c:	2c068693          	addi	a3,a3,704 # 12c0 <update_VGA+0x78>
    3470:	01010713          	addi	a4,sp,16
    3474:	00e60733          	add	a4,a2,a4
    3478:	00d786b3          	add	a3,a5,a3
    347c:	0007a803          	lw	a6,0(a5)
    3480:	0047a503          	lw	a0,4(a5)
    3484:	0087a583          	lw	a1,8(a5)
    3488:	00c7a603          	lw	a2,12(a5)
    348c:	01072023          	sw	a6,0(a4)
    3490:	00a72223          	sw	a0,4(a4)
    3494:	00b72423          	sw	a1,8(a4)
    3498:	00c72623          	sw	a2,12(a4)
    349c:	01078793          	addi	a5,a5,16
    34a0:	01070713          	addi	a4,a4,16
    34a4:	fcd79ce3          	bne	a5,a3,347c <main+0x6b4>
    34a8:	00082437          	lui	s0,0x82
    34ac:	fff8b5b7          	lui	a1,0xfff8b
    34b0:	9dc58593          	addi	a1,a1,-1572 # fff8a9dc <_stack_end+0xffdecf40>
    34b4:	1d040613          	addi	a2,s0,464 # 821d0 <pbuffer+0x2fe2c>
    34b8:	0007a683          	lw	a3,0(a5)
    34bc:	00b60633          	add	a2,a2,a1
    34c0:	0047a783          	lw	a5,4(a5)
    34c4:	fff7f537          	lui	a0,0xfff7f
    34c8:	01010593          	addi	a1,sp,16
    34cc:	00b605b3          	add	a1,a2,a1
    34d0:	f7050513          	addi	a0,a0,-144 # fff7ef70 <_stack_end+0xffde14d4>
    34d4:	1d040613          	addi	a2,s0,464
    34d8:	00a60633          	add	a2,a2,a0
    34dc:	01010513          	addi	a0,sp,16
    34e0:	00d72023          	sw	a3,0(a4)
    34e4:	00f72223          	sw	a5,4(a4)
    34e8:	00a60533          	add	a0,a2,a0
    34ec:	86cfe0ef          	jal	1558 <add_to_scene>
    34f0:	fff887b7          	lui	a5,0xfff88
    34f4:	44c78793          	addi	a5,a5,1100 # fff8844c <_stack_end+0xffdea9b0>
    34f8:	fff7f737          	lui	a4,0xfff7f
    34fc:	1d040593          	addi	a1,s0,464
    3500:	f7070713          	addi	a4,a4,-144 # fff7ef70 <_stack_end+0xffde14d4>
    3504:	00f585b3          	add	a1,a1,a5
    3508:	000016b7          	lui	a3,0x1
    350c:	01010793          	addi	a5,sp,16
    3510:	1d040613          	addi	a2,s0,464
    3514:	00e60633          	add	a2,a2,a4
    3518:	00f587b3          	add	a5,a1,a5
    351c:	2c068693          	addi	a3,a3,704 # 12c0 <update_VGA+0x78>
    3520:	01010713          	addi	a4,sp,16
    3524:	00e60733          	add	a4,a2,a4
    3528:	00d786b3          	add	a3,a5,a3
    352c:	0007a803          	lw	a6,0(a5)
    3530:	0047a503          	lw	a0,4(a5)
    3534:	0087a583          	lw	a1,8(a5)
    3538:	00c7a603          	lw	a2,12(a5)
    353c:	01072023          	sw	a6,0(a4)
    3540:	00a72223          	sw	a0,4(a4)
    3544:	00b72423          	sw	a1,8(a4)
    3548:	00c72623          	sw	a2,12(a4)
    354c:	01078793          	addi	a5,a5,16
    3550:	01070713          	addi	a4,a4,16
    3554:	fcd79ce3          	bne	a5,a3,352c <main+0x764>
    3558:	00082937          	lui	s2,0x82
    355c:	fff8b637          	lui	a2,0xfff8b
    3560:	9dc60613          	addi	a2,a2,-1572 # fff8a9dc <_stack_end+0xffdecf40>
    3564:	1d090593          	addi	a1,s2,464 # 821d0 <pbuffer+0x2fe2c>
    3568:	00c585b3          	add	a1,a1,a2
    356c:	01010613          	addi	a2,sp,16
    3570:	00c58633          	add	a2,a1,a2
    3574:	fff7f6b7          	lui	a3,0xfff7f
    3578:	0007a803          	lw	a6,0(a5)
    357c:	f7068693          	addi	a3,a3,-144 # fff7ef70 <_stack_end+0xffde14d4>
    3580:	0047a783          	lw	a5,4(a5)
    3584:	00c12023          	sw	a2,0(sp)
    3588:	1d090613          	addi	a2,s2,464
    358c:	00d60633          	add	a2,a2,a3
    3590:	01010693          	addi	a3,sp,16
    3594:	00012583          	lw	a1,0(sp)
    3598:	00d606b3          	add	a3,a2,a3
    359c:	00d12223          	sw	a3,4(sp)
    35a0:	00f72223          	sw	a5,4(a4)
    35a4:	00068513          	mv	a0,a3
    35a8:	01072023          	sw	a6,0(a4)
    35ac:	fadfd0ef          	jal	1558 <add_to_scene>
    35b0:	000074b7          	lui	s1,0x7
    35b4:	38c4a783          	lw	a5,908(s1) # 738c <running>
    35b8:	1c078263          	beqz	a5,377c <main+0x9b4>
    35bc:	fff80c37          	lui	s8,0xfff80
    35c0:	1d090693          	addi	a3,s2,464
    35c4:	01010613          	addi	a2,sp,16
    35c8:	018686b3          	add	a3,a3,s8
    35cc:	fff80737          	lui	a4,0xfff80
    35d0:	00c68c33          	add	s8,a3,a2
    35d4:	24070713          	addi	a4,a4,576 # fff80240 <_stack_end+0xffde27a4>
    35d8:	1d090693          	addi	a3,s2,464
    35dc:	00e686b3          	add	a3,a3,a4
    35e0:	00c68733          	add	a4,a3,a2
    35e4:	fff7e7b7          	lui	a5,0xfff7e
    35e8:	00e12623          	sw	a4,12(sp)
    35ec:	00090713          	mv	a4,s2
    35f0:	e3078793          	addi	a5,a5,-464 # fff7de30 <_stack_end+0xffde0394>
    35f4:	fff89437          	lui	s0,0xfff89
    35f8:	1d070713          	addi	a4,a4,464
    35fc:	71440413          	addi	s0,s0,1812 # fff89714 <_stack_end+0xffdebc78>
    3600:	1d090693          	addi	a3,s2,464
    3604:	00f70733          	add	a4,a4,a5
    3608:	008686b3          	add	a3,a3,s0
    360c:	00c707b3          	add	a5,a4,a2
    3610:	0009db37          	lui	s6,0x9d
    3614:	0009dab7          	lui	s5,0x9d
    3618:	00007a37          	lui	s4,0x7
    361c:	0009d9b7          	lui	s3,0x9d
    3620:	0009dbb7          	lui	s7,0x9d
    3624:	00c68433          	add	s0,a3,a2
    3628:	264c0913          	addi	s2,s8,612 # fff80264 <_stack_end+0xffde27c8>
    362c:	00f12423          	sw	a5,8(sp)
    3630:	260c2783          	lw	a5,608(s8)
    3634:	254c2603          	lw	a2,596(s8)
    3638:	258c2683          	lw	a3,600(s8)
    363c:	25cc2703          	lw	a4,604(s8)
    3640:	00c12583          	lw	a1,12(sp)
    3644:	00012503          	lw	a0,0(sp)
    3648:	24fc2623          	sw	a5,588(s8)
    364c:	24cc2023          	sw	a2,576(s8)
    3650:	24dc2223          	sw	a3,580(s8)
    3654:	24ec2423          	sw	a4,584(s8)
    3658:	b70ff0ef          	jal	29c8 <update_scene>
    365c:	3a9b4783          	lbu	a5,937(s6) # 9d3a9 <sw8>
    3660:	14078c63          	beqz	a5,37b8 <main+0x9f0>
    3664:	00100793          	li	a5,1
    3668:	3afaac23          	sw	a5,952(s5) # 9d3b8 <wireframe_enable>
    366c:	380a2823          	sw	zero,912(s4) # 7390 <rasterize_enable>
    3670:	00000793          	li	a5,0
    3674:	00012583          	lw	a1,0(sp)
    3678:	00040513          	mv	a0,s0
    367c:	3af9aa23          	sw	a5,948(s3) # 9d3b4 <zbuffer_enable>
    3680:	f45fd0ef          	jal	15c4 <scene_to_mesh4>
    3684:	fff7f7b7          	lui	a5,0xfff7f
    3688:	00082637          	lui	a2,0x82
    368c:	f7078793          	addi	a5,a5,-144 # fff7ef70 <_stack_end+0xffde14d4>
    3690:	000016b7          	lui	a3,0x1
    3694:	1d060613          	addi	a2,a2,464 # 821d0 <pbuffer+0x2fe2c>
    3698:	00f60633          	add	a2,a2,a5
    369c:	2c068693          	addi	a3,a3,704 # 12c0 <update_VGA+0x78>
    36a0:	01010793          	addi	a5,sp,16
    36a4:	00040713          	mv	a4,s0
    36a8:	00f607b3          	add	a5,a2,a5
    36ac:	00d406b3          	add	a3,s0,a3
    36b0:	00072803          	lw	a6,0(a4)
    36b4:	00472503          	lw	a0,4(a4)
    36b8:	00872583          	lw	a1,8(a4)
    36bc:	00c72603          	lw	a2,12(a4)
    36c0:	0107a023          	sw	a6,0(a5)
    36c4:	00a7a223          	sw	a0,4(a5)
    36c8:	00b7a423          	sw	a1,8(a5)
    36cc:	00c7a623          	sw	a2,12(a5)
    36d0:	01070713          	addi	a4,a4,16
    36d4:	01078793          	addi	a5,a5,16
    36d8:	fcd71ce3          	bne	a4,a3,36b0 <main+0x8e8>
    36dc:	00072683          	lw	a3,0(a4)
    36e0:	00472703          	lw	a4,4(a4)
    36e4:	00412583          	lw	a1,4(sp)
    36e8:	00090513          	mv	a0,s2
    36ec:	00d7a023          	sw	a3,0(a5)
    36f0:	00e7a223          	sw	a4,4(a5)
    36f4:	314030ef          	jal	6a08 <mesh4_perspective_mesh3>
    36f8:	fff7e7b7          	lui	a5,0xfff7e
    36fc:	00082637          	lui	a2,0x82
    3700:	e3078793          	addi	a5,a5,-464 # fff7de30 <_stack_end+0xffde0394>
    3704:	000016b7          	lui	a3,0x1
    3708:	1d060613          	addi	a2,a2,464 # 821d0 <pbuffer+0x2fe2c>
    370c:	00f60633          	add	a2,a2,a5
    3710:	264c0713          	addi	a4,s8,612
    3714:	13068693          	addi	a3,a3,304 # 1130 <set_pbuffer+0x94>
    3718:	01010793          	addi	a5,sp,16
    371c:	00f607b3          	add	a5,a2,a5
    3720:	00d706b3          	add	a3,a4,a3
    3724:	00072803          	lw	a6,0(a4)
    3728:	00472503          	lw	a0,4(a4)
    372c:	00872583          	lw	a1,8(a4)
    3730:	00c72603          	lw	a2,12(a4)
    3734:	0107a023          	sw	a6,0(a5)
    3738:	00a7a223          	sw	a0,4(a5)
    373c:	00b7a423          	sw	a1,8(a5)
    3740:	00c7a623          	sw	a2,12(a5)
    3744:	01070713          	addi	a4,a4,16
    3748:	01078793          	addi	a5,a5,16
    374c:	fcd71ce3          	bne	a4,a3,3724 <main+0x95c>
    3750:	00072683          	lw	a3,0(a4)
    3754:	00472703          	lw	a4,4(a4)
    3758:	00812503          	lw	a0,8(sp)
    375c:	00d7a023          	sw	a3,0(a5)
    3760:	00e7a223          	sw	a4,4(a5)
    3764:	bd0fd0ef          	jal	b34 <draw_mesh3>
    3768:	ae1fd0ef          	jal	1248 <update_VGA>
    376c:	a8dfd0ef          	jal	11f8 <clear_pbuffer>
    3770:	ab1fd0ef          	jal	1220 <clear_zbuffer>
    3774:	38c4a783          	lw	a5,908(s1)
    3778:	ea079ce3          	bnez	a5,3630 <main+0x868>
    377c:	000822b7          	lui	t0,0x82
    3780:	00510133          	add	sp,sp,t0
    3784:	20c12083          	lw	ra,524(sp)
    3788:	20812403          	lw	s0,520(sp)
    378c:	20412483          	lw	s1,516(sp)
    3790:	20012903          	lw	s2,512(sp)
    3794:	1fc12983          	lw	s3,508(sp)
    3798:	1f812a03          	lw	s4,504(sp)
    379c:	1f412a83          	lw	s5,500(sp)
    37a0:	1f012b03          	lw	s6,496(sp)
    37a4:	1ec12b83          	lw	s7,492(sp)
    37a8:	1e812c03          	lw	s8,488(sp)
    37ac:	00000513          	li	a0,0
    37b0:	21010113          	addi	sp,sp,528
    37b4:	00008067          	ret
    37b8:	3a8bc783          	lbu	a5,936(s7) # 9d3a8 <sw9>
    37bc:	00100713          	li	a4,1
    37c0:	3a0aac23          	sw	zero,952(s5)
    37c4:	38ea2823          	sw	a4,912(s4)
    37c8:	ea0784e3          	beqz	a5,3670 <main+0x8a8>
    37cc:	00100793          	li	a5,1
    37d0:	ea5ff06f          	j	3674 <main+0x8ac>

000037d4 <vec2_length>:
    37d4:	fe010113          	addi	sp,sp,-32
    37d8:	00912a23          	sw	s1,20(sp)
    37dc:	00058493          	mv	s1,a1
    37e0:	00050593          	mv	a1,a0
    37e4:	00112e23          	sw	ra,28(sp)
    37e8:	00812c23          	sw	s0,24(sp)
    37ec:	20d030ef          	jal	71f8 <__mulsf3>
    37f0:	00050413          	mv	s0,a0
    37f4:	00048593          	mv	a1,s1
    37f8:	00048513          	mv	a0,s1
    37fc:	1fd030ef          	jal	71f8 <__mulsf3>
    3800:	00050593          	mv	a1,a0
    3804:	00040513          	mv	a0,s0
    3808:	518030ef          	jal	6d20 <__addsf3>
    380c:	01812403          	lw	s0,24(sp)
    3810:	01c12083          	lw	ra,28(sp)
    3814:	01412483          	lw	s1,20(sp)
    3818:	02010113          	addi	sp,sp,32
    381c:	6550106f          	j	5670 <sqrtf>

00003820 <vec2_add>:
    3820:	fd010113          	addi	sp,sp,-48
    3824:	00058793          	mv	a5,a1
    3828:	02912223          	sw	s1,36(sp)
    382c:	00068593          	mv	a1,a3
    3830:	00050493          	mv	s1,a0
    3834:	00078513          	mv	a0,a5
    3838:	02112623          	sw	ra,44(sp)
    383c:	02812423          	sw	s0,40(sp)
    3840:	03212023          	sw	s2,32(sp)
    3844:	00060913          	mv	s2,a2
    3848:	4d8030ef          	jal	6d20 <__addsf3>
    384c:	00050413          	mv	s0,a0
    3850:	00090593          	mv	a1,s2
    3854:	00048513          	mv	a0,s1
    3858:	4c8030ef          	jal	6d20 <__addsf3>
    385c:	02c12083          	lw	ra,44(sp)
    3860:	00040593          	mv	a1,s0
    3864:	02812403          	lw	s0,40(sp)
    3868:	02412483          	lw	s1,36(sp)
    386c:	02012903          	lw	s2,32(sp)
    3870:	03010113          	addi	sp,sp,48
    3874:	00008067          	ret

00003878 <vec2_sub>:
    3878:	fd010113          	addi	sp,sp,-48
    387c:	00058793          	mv	a5,a1
    3880:	02912223          	sw	s1,36(sp)
    3884:	00068593          	mv	a1,a3
    3888:	00050493          	mv	s1,a0
    388c:	00078513          	mv	a0,a5
    3890:	02112623          	sw	ra,44(sp)
    3894:	02812423          	sw	s0,40(sp)
    3898:	03212023          	sw	s2,32(sp)
    389c:	00060913          	mv	s2,a2
    38a0:	478030ef          	jal	6d18 <__subsf3>
    38a4:	00050413          	mv	s0,a0
    38a8:	00090593          	mv	a1,s2
    38ac:	00048513          	mv	a0,s1
    38b0:	468030ef          	jal	6d18 <__subsf3>
    38b4:	02c12083          	lw	ra,44(sp)
    38b8:	00040593          	mv	a1,s0
    38bc:	02812403          	lw	s0,40(sp)
    38c0:	02412483          	lw	s1,36(sp)
    38c4:	02012903          	lw	s2,32(sp)
    38c8:	03010113          	addi	sp,sp,48
    38cc:	00008067          	ret

000038d0 <vec2_mul>:
    38d0:	fd010113          	addi	sp,sp,-48
    38d4:	02912223          	sw	s1,36(sp)
    38d8:	00050493          	mv	s1,a0
    38dc:	00060513          	mv	a0,a2
    38e0:	02112623          	sw	ra,44(sp)
    38e4:	02812423          	sw	s0,40(sp)
    38e8:	00060413          	mv	s0,a2
    38ec:	10d030ef          	jal	71f8 <__mulsf3>
    38f0:	00050793          	mv	a5,a0
    38f4:	00040593          	mv	a1,s0
    38f8:	00048513          	mv	a0,s1
    38fc:	00078413          	mv	s0,a5
    3900:	0f9030ef          	jal	71f8 <__mulsf3>
    3904:	02c12083          	lw	ra,44(sp)
    3908:	00040593          	mv	a1,s0
    390c:	02812403          	lw	s0,40(sp)
    3910:	02412483          	lw	s1,36(sp)
    3914:	03010113          	addi	sp,sp,48
    3918:	00008067          	ret

0000391c <vec2_div>:
    391c:	fd010113          	addi	sp,sp,-48
    3920:	00058793          	mv	a5,a1
    3924:	02912223          	sw	s1,36(sp)
    3928:	00060593          	mv	a1,a2
    392c:	00050493          	mv	s1,a0
    3930:	00078513          	mv	a0,a5
    3934:	02112623          	sw	ra,44(sp)
    3938:	02812423          	sw	s0,40(sp)
    393c:	00060413          	mv	s0,a2
    3940:	5a4030ef          	jal	6ee4 <__divsf3>
    3944:	00050793          	mv	a5,a0
    3948:	00040593          	mv	a1,s0
    394c:	00048513          	mv	a0,s1
    3950:	00078413          	mv	s0,a5
    3954:	590030ef          	jal	6ee4 <__divsf3>
    3958:	02c12083          	lw	ra,44(sp)
    395c:	00040593          	mv	a1,s0
    3960:	02812403          	lw	s0,40(sp)
    3964:	02412483          	lw	s1,36(sp)
    3968:	03010113          	addi	sp,sp,48
    396c:	00008067          	ret

00003970 <vec2_normalize>:
    3970:	00052583          	lw	a1,0(a0)
    3974:	ff010113          	addi	sp,sp,-16
    3978:	01212023          	sw	s2,0(sp)
    397c:	00452903          	lw	s2,4(a0)
    3980:	00812423          	sw	s0,8(sp)
    3984:	00050413          	mv	s0,a0
    3988:	00058513          	mv	a0,a1
    398c:	00112623          	sw	ra,12(sp)
    3990:	00912223          	sw	s1,4(sp)
    3994:	065030ef          	jal	71f8 <__mulsf3>
    3998:	00050493          	mv	s1,a0
    399c:	00090593          	mv	a1,s2
    39a0:	00090513          	mv	a0,s2
    39a4:	055030ef          	jal	71f8 <__mulsf3>
    39a8:	00050593          	mv	a1,a0
    39ac:	00048513          	mv	a0,s1
    39b0:	370030ef          	jal	6d20 <__addsf3>
    39b4:	4bd010ef          	jal	5670 <sqrtf>
    39b8:	00000593          	li	a1,0
    39bc:	00050493          	mv	s1,a0
    39c0:	690030ef          	jal	7050 <__eqsf2>
    39c4:	02050663          	beqz	a0,39f0 <vec2_normalize+0x80>
    39c8:	00442503          	lw	a0,4(s0)
    39cc:	00048593          	mv	a1,s1
    39d0:	514030ef          	jal	6ee4 <__divsf3>
    39d4:	00050793          	mv	a5,a0
    39d8:	00042503          	lw	a0,0(s0)
    39dc:	00048593          	mv	a1,s1
    39e0:	00078493          	mv	s1,a5
    39e4:	500030ef          	jal	6ee4 <__divsf3>
    39e8:	00a42023          	sw	a0,0(s0)
    39ec:	00942223          	sw	s1,4(s0)
    39f0:	00c12083          	lw	ra,12(sp)
    39f4:	00812403          	lw	s0,8(sp)
    39f8:	00412483          	lw	s1,4(sp)
    39fc:	00012903          	lw	s2,0(sp)
    3a00:	01010113          	addi	sp,sp,16
    3a04:	00008067          	ret

00003a08 <vec3_length>:
    3a08:	00052583          	lw	a1,0(a0)
    3a0c:	ff010113          	addi	sp,sp,-16
    3a10:	01212023          	sw	s2,0(sp)
    3a14:	00452903          	lw	s2,4(a0)
    3a18:	00912223          	sw	s1,4(sp)
    3a1c:	00852483          	lw	s1,8(a0)
    3a20:	00058513          	mv	a0,a1
    3a24:	00112623          	sw	ra,12(sp)
    3a28:	00812423          	sw	s0,8(sp)
    3a2c:	7cc030ef          	jal	71f8 <__mulsf3>
    3a30:	00050413          	mv	s0,a0
    3a34:	00090593          	mv	a1,s2
    3a38:	00090513          	mv	a0,s2
    3a3c:	7bc030ef          	jal	71f8 <__mulsf3>
    3a40:	00050593          	mv	a1,a0
    3a44:	00040513          	mv	a0,s0
    3a48:	2d8030ef          	jal	6d20 <__addsf3>
    3a4c:	00050413          	mv	s0,a0
    3a50:	00048593          	mv	a1,s1
    3a54:	00048513          	mv	a0,s1
    3a58:	7a0030ef          	jal	71f8 <__mulsf3>
    3a5c:	00050593          	mv	a1,a0
    3a60:	00040513          	mv	a0,s0
    3a64:	2bc030ef          	jal	6d20 <__addsf3>
    3a68:	00812403          	lw	s0,8(sp)
    3a6c:	00c12083          	lw	ra,12(sp)
    3a70:	00412483          	lw	s1,4(sp)
    3a74:	00012903          	lw	s2,0(sp)
    3a78:	01010113          	addi	sp,sp,16
    3a7c:	3f50106f          	j	5670 <sqrtf>

00003a80 <vec3_add>:
    3a80:	fe010113          	addi	sp,sp,-32
    3a84:	00912a23          	sw	s1,20(sp)
    3a88:	00058493          	mv	s1,a1
    3a8c:	00812c23          	sw	s0,24(sp)
    3a90:	00462583          	lw	a1,4(a2)
    3a94:	00050413          	mv	s0,a0
    3a98:	0044a503          	lw	a0,4(s1)
    3a9c:	00112e23          	sw	ra,28(sp)
    3aa0:	01212823          	sw	s2,16(sp)
    3aa4:	01312623          	sw	s3,12(sp)
    3aa8:	00060913          	mv	s2,a2
    3aac:	274030ef          	jal	6d20 <__addsf3>
    3ab0:	00892583          	lw	a1,8(s2)
    3ab4:	00050993          	mv	s3,a0
    3ab8:	0084a503          	lw	a0,8(s1)
    3abc:	264030ef          	jal	6d20 <__addsf3>
    3ac0:	00092583          	lw	a1,0(s2)
    3ac4:	00050793          	mv	a5,a0
    3ac8:	0004a503          	lw	a0,0(s1)
    3acc:	00078493          	mv	s1,a5
    3ad0:	250030ef          	jal	6d20 <__addsf3>
    3ad4:	00a42023          	sw	a0,0(s0)
    3ad8:	01342223          	sw	s3,4(s0)
    3adc:	00942423          	sw	s1,8(s0)
    3ae0:	01c12083          	lw	ra,28(sp)
    3ae4:	00040513          	mv	a0,s0
    3ae8:	01812403          	lw	s0,24(sp)
    3aec:	01412483          	lw	s1,20(sp)
    3af0:	01012903          	lw	s2,16(sp)
    3af4:	00c12983          	lw	s3,12(sp)
    3af8:	02010113          	addi	sp,sp,32
    3afc:	00008067          	ret

00003b00 <vec3_sub>:
    3b00:	fe010113          	addi	sp,sp,-32
    3b04:	00912a23          	sw	s1,20(sp)
    3b08:	00058493          	mv	s1,a1
    3b0c:	00812c23          	sw	s0,24(sp)
    3b10:	00462583          	lw	a1,4(a2)
    3b14:	00050413          	mv	s0,a0
    3b18:	0044a503          	lw	a0,4(s1)
    3b1c:	00112e23          	sw	ra,28(sp)
    3b20:	01212823          	sw	s2,16(sp)
    3b24:	01312623          	sw	s3,12(sp)
    3b28:	00060913          	mv	s2,a2
    3b2c:	1ec030ef          	jal	6d18 <__subsf3>
    3b30:	00892583          	lw	a1,8(s2)
    3b34:	00050993          	mv	s3,a0
    3b38:	0084a503          	lw	a0,8(s1)
    3b3c:	1dc030ef          	jal	6d18 <__subsf3>
    3b40:	00092583          	lw	a1,0(s2)
    3b44:	00050793          	mv	a5,a0
    3b48:	0004a503          	lw	a0,0(s1)
    3b4c:	00078493          	mv	s1,a5
    3b50:	1c8030ef          	jal	6d18 <__subsf3>
    3b54:	00a42023          	sw	a0,0(s0)
    3b58:	01342223          	sw	s3,4(s0)
    3b5c:	00942423          	sw	s1,8(s0)
    3b60:	01c12083          	lw	ra,28(sp)
    3b64:	00040513          	mv	a0,s0
    3b68:	01812403          	lw	s0,24(sp)
    3b6c:	01412483          	lw	s1,20(sp)
    3b70:	01012903          	lw	s2,16(sp)
    3b74:	00c12983          	lw	s3,12(sp)
    3b78:	02010113          	addi	sp,sp,32
    3b7c:	00008067          	ret

00003b80 <vec3_mul>:
    3b80:	fe010113          	addi	sp,sp,-32
    3b84:	01212823          	sw	s2,16(sp)
    3b88:	00058913          	mv	s2,a1
    3b8c:	0045a583          	lw	a1,4(a1)
    3b90:	00812c23          	sw	s0,24(sp)
    3b94:	00050413          	mv	s0,a0
    3b98:	00060513          	mv	a0,a2
    3b9c:	00112e23          	sw	ra,28(sp)
    3ba0:	00912a23          	sw	s1,20(sp)
    3ba4:	01312623          	sw	s3,12(sp)
    3ba8:	00060493          	mv	s1,a2
    3bac:	64c030ef          	jal	71f8 <__mulsf3>
    3bb0:	00892583          	lw	a1,8(s2)
    3bb4:	00050993          	mv	s3,a0
    3bb8:	00048513          	mv	a0,s1
    3bbc:	63c030ef          	jal	71f8 <__mulsf3>
    3bc0:	00050793          	mv	a5,a0
    3bc4:	00092503          	lw	a0,0(s2)
    3bc8:	00048593          	mv	a1,s1
    3bcc:	00078493          	mv	s1,a5
    3bd0:	628030ef          	jal	71f8 <__mulsf3>
    3bd4:	00a42023          	sw	a0,0(s0)
    3bd8:	01342223          	sw	s3,4(s0)
    3bdc:	00942423          	sw	s1,8(s0)
    3be0:	01c12083          	lw	ra,28(sp)
    3be4:	00040513          	mv	a0,s0
    3be8:	01812403          	lw	s0,24(sp)
    3bec:	01412483          	lw	s1,20(sp)
    3bf0:	01012903          	lw	s2,16(sp)
    3bf4:	00c12983          	lw	s3,12(sp)
    3bf8:	02010113          	addi	sp,sp,32
    3bfc:	00008067          	ret

00003c00 <vec3_div>:
    3c00:	fe010113          	addi	sp,sp,-32
    3c04:	00812c23          	sw	s0,24(sp)
    3c08:	00050413          	mv	s0,a0
    3c0c:	0045a503          	lw	a0,4(a1)
    3c10:	01212823          	sw	s2,16(sp)
    3c14:	00058913          	mv	s2,a1
    3c18:	00060593          	mv	a1,a2
    3c1c:	00112e23          	sw	ra,28(sp)
    3c20:	00912a23          	sw	s1,20(sp)
    3c24:	01312623          	sw	s3,12(sp)
    3c28:	00060493          	mv	s1,a2
    3c2c:	2b8030ef          	jal	6ee4 <__divsf3>
    3c30:	00050993          	mv	s3,a0
    3c34:	00892503          	lw	a0,8(s2)
    3c38:	00048593          	mv	a1,s1
    3c3c:	2a8030ef          	jal	6ee4 <__divsf3>
    3c40:	00050793          	mv	a5,a0
    3c44:	00092503          	lw	a0,0(s2)
    3c48:	00048593          	mv	a1,s1
    3c4c:	00078493          	mv	s1,a5
    3c50:	294030ef          	jal	6ee4 <__divsf3>
    3c54:	00a42023          	sw	a0,0(s0)
    3c58:	01342223          	sw	s3,4(s0)
    3c5c:	00942423          	sw	s1,8(s0)
    3c60:	01c12083          	lw	ra,28(sp)
    3c64:	00040513          	mv	a0,s0
    3c68:	01812403          	lw	s0,24(sp)
    3c6c:	01412483          	lw	s1,20(sp)
    3c70:	01012903          	lw	s2,16(sp)
    3c74:	00c12983          	lw	s3,12(sp)
    3c78:	02010113          	addi	sp,sp,32
    3c7c:	00008067          	ret

00003c80 <vec3_normalize>:
    3c80:	00052583          	lw	a1,0(a0)
    3c84:	fe010113          	addi	sp,sp,-32
    3c88:	01312623          	sw	s3,12(sp)
    3c8c:	00452983          	lw	s3,4(a0)
    3c90:	00812c23          	sw	s0,24(sp)
    3c94:	01212823          	sw	s2,16(sp)
    3c98:	00050413          	mv	s0,a0
    3c9c:	00852903          	lw	s2,8(a0)
    3ca0:	00058513          	mv	a0,a1
    3ca4:	00112e23          	sw	ra,28(sp)
    3ca8:	00912a23          	sw	s1,20(sp)
    3cac:	54c030ef          	jal	71f8 <__mulsf3>
    3cb0:	00050493          	mv	s1,a0
    3cb4:	00098593          	mv	a1,s3
    3cb8:	00098513          	mv	a0,s3
    3cbc:	53c030ef          	jal	71f8 <__mulsf3>
    3cc0:	00050593          	mv	a1,a0
    3cc4:	00048513          	mv	a0,s1
    3cc8:	058030ef          	jal	6d20 <__addsf3>
    3ccc:	00050493          	mv	s1,a0
    3cd0:	00090593          	mv	a1,s2
    3cd4:	00090513          	mv	a0,s2
    3cd8:	520030ef          	jal	71f8 <__mulsf3>
    3cdc:	00050593          	mv	a1,a0
    3ce0:	00048513          	mv	a0,s1
    3ce4:	03c030ef          	jal	6d20 <__addsf3>
    3ce8:	189010ef          	jal	5670 <sqrtf>
    3cec:	00000593          	li	a1,0
    3cf0:	00050493          	mv	s1,a0
    3cf4:	35c030ef          	jal	7050 <__eqsf2>
    3cf8:	04050063          	beqz	a0,3d38 <vec3_normalize+0xb8>
    3cfc:	00442503          	lw	a0,4(s0)
    3d00:	00048593          	mv	a1,s1
    3d04:	1e0030ef          	jal	6ee4 <__divsf3>
    3d08:	00050913          	mv	s2,a0
    3d0c:	00842503          	lw	a0,8(s0)
    3d10:	00048593          	mv	a1,s1
    3d14:	1d0030ef          	jal	6ee4 <__divsf3>
    3d18:	00050793          	mv	a5,a0
    3d1c:	00042503          	lw	a0,0(s0)
    3d20:	00048593          	mv	a1,s1
    3d24:	00078493          	mv	s1,a5
    3d28:	1bc030ef          	jal	6ee4 <__divsf3>
    3d2c:	00a42023          	sw	a0,0(s0)
    3d30:	01242223          	sw	s2,4(s0)
    3d34:	00942423          	sw	s1,8(s0)
    3d38:	01c12083          	lw	ra,28(sp)
    3d3c:	01812403          	lw	s0,24(sp)
    3d40:	01412483          	lw	s1,20(sp)
    3d44:	01012903          	lw	s2,16(sp)
    3d48:	00c12983          	lw	s3,12(sp)
    3d4c:	02010113          	addi	sp,sp,32
    3d50:	00008067          	ret

00003d54 <vec3_dot>:
    3d54:	fd010113          	addi	sp,sp,-48
    3d58:	03212023          	sw	s2,32(sp)
    3d5c:	01612823          	sw	s6,16(sp)
    3d60:	0045a903          	lw	s2,4(a1)
    3d64:	00862b03          	lw	s6,8(a2)
    3d68:	00058793          	mv	a5,a1
    3d6c:	01512a23          	sw	s5,20(sp)
    3d70:	01712623          	sw	s7,12(sp)
    3d74:	00462a83          	lw	s5,4(a2)
    3d78:	0087ab83          	lw	s7,8(a5)
    3d7c:	02812423          	sw	s0,40(sp)
    3d80:	000b0593          	mv	a1,s6
    3d84:	00050413          	mv	s0,a0
    3d88:	00090513          	mv	a0,s2
    3d8c:	02112623          	sw	ra,44(sp)
    3d90:	02912223          	sw	s1,36(sp)
    3d94:	01312e23          	sw	s3,28(sp)
    3d98:	01412c23          	sw	s4,24(sp)
    3d9c:	00062983          	lw	s3,0(a2)
    3da0:	0007aa03          	lw	s4,0(a5)
    3da4:	454030ef          	jal	71f8 <__mulsf3>
    3da8:	00050493          	mv	s1,a0
    3dac:	000a8593          	mv	a1,s5
    3db0:	000b8513          	mv	a0,s7
    3db4:	444030ef          	jal	71f8 <__mulsf3>
    3db8:	00050593          	mv	a1,a0
    3dbc:	00048513          	mv	a0,s1
    3dc0:	759020ef          	jal	6d18 <__subsf3>
    3dc4:	00a42023          	sw	a0,0(s0)
    3dc8:	00098593          	mv	a1,s3
    3dcc:	000b8513          	mv	a0,s7
    3dd0:	428030ef          	jal	71f8 <__mulsf3>
    3dd4:	00050493          	mv	s1,a0
    3dd8:	000b0593          	mv	a1,s6
    3ddc:	000a0513          	mv	a0,s4
    3de0:	418030ef          	jal	71f8 <__mulsf3>
    3de4:	00050593          	mv	a1,a0
    3de8:	00048513          	mv	a0,s1
    3dec:	72d020ef          	jal	6d18 <__subsf3>
    3df0:	00a42223          	sw	a0,4(s0)
    3df4:	000a8593          	mv	a1,s5
    3df8:	000a0513          	mv	a0,s4
    3dfc:	3fc030ef          	jal	71f8 <__mulsf3>
    3e00:	00050493          	mv	s1,a0
    3e04:	00098593          	mv	a1,s3
    3e08:	00090513          	mv	a0,s2
    3e0c:	3ec030ef          	jal	71f8 <__mulsf3>
    3e10:	00050593          	mv	a1,a0
    3e14:	00048513          	mv	a0,s1
    3e18:	701020ef          	jal	6d18 <__subsf3>
    3e1c:	00a42423          	sw	a0,8(s0)
    3e20:	02c12083          	lw	ra,44(sp)
    3e24:	00040513          	mv	a0,s0
    3e28:	02812403          	lw	s0,40(sp)
    3e2c:	02412483          	lw	s1,36(sp)
    3e30:	02012903          	lw	s2,32(sp)
    3e34:	01c12983          	lw	s3,28(sp)
    3e38:	01812a03          	lw	s4,24(sp)
    3e3c:	01412a83          	lw	s5,20(sp)
    3e40:	01012b03          	lw	s6,16(sp)
    3e44:	00c12b83          	lw	s7,12(sp)
    3e48:	03010113          	addi	sp,sp,48
    3e4c:	00008067          	ret

00003e50 <vec4_to_vec3>:
    3e50:	fe010113          	addi	sp,sp,-32
    3e54:	01512223          	sw	s5,4(sp)
    3e58:	00c5aa83          	lw	s5,12(a1)
    3e5c:	00812c23          	sw	s0,24(sp)
    3e60:	00050413          	mv	s0,a0
    3e64:	0045a503          	lw	a0,4(a1)
    3e68:	00912a23          	sw	s1,20(sp)
    3e6c:	00058493          	mv	s1,a1
    3e70:	000a8593          	mv	a1,s5
    3e74:	00112e23          	sw	ra,28(sp)
    3e78:	01212823          	sw	s2,16(sp)
    3e7c:	01312623          	sw	s3,12(sp)
    3e80:	01412423          	sw	s4,8(sp)
    3e84:	060030ef          	jal	6ee4 <__divsf3>
    3e88:	0009ea37          	lui	s4,0x9e
    3e8c:	00050593          	mv	a1,a0
    3e90:	908a2503          	lw	a0,-1784(s4) # 9d908 <CSWTCH.6+0x534>
    3e94:	0009e9b7          	lui	s3,0x9e
    3e98:	681020ef          	jal	6d18 <__subsf3>
    3e9c:	8fc9a583          	lw	a1,-1796(s3) # 9d8fc <CSWTCH.6+0x528>
    3ea0:	358030ef          	jal	71f8 <__mulsf3>
    3ea4:	0009e7b7          	lui	a5,0x9e
    3ea8:	9587a583          	lw	a1,-1704(a5) # 9d958 <CSWTCH.6+0x584>
    3eac:	34c030ef          	jal	71f8 <__mulsf3>
    3eb0:	00050913          	mv	s2,a0
    3eb4:	0084a503          	lw	a0,8(s1)
    3eb8:	000a8593          	mv	a1,s5
    3ebc:	028030ef          	jal	6ee4 <__divsf3>
    3ec0:	908a2583          	lw	a1,-1784(s4)
    3ec4:	65d020ef          	jal	6d20 <__addsf3>
    3ec8:	8fc9a583          	lw	a1,-1796(s3)
    3ecc:	32c030ef          	jal	71f8 <__mulsf3>
    3ed0:	00050793          	mv	a5,a0
    3ed4:	0004a503          	lw	a0,0(s1)
    3ed8:	000a8593          	mv	a1,s5
    3edc:	00078493          	mv	s1,a5
    3ee0:	004030ef          	jal	6ee4 <__divsf3>
    3ee4:	908a2583          	lw	a1,-1784(s4)
    3ee8:	639020ef          	jal	6d20 <__addsf3>
    3eec:	8fc9a583          	lw	a1,-1796(s3)
    3ef0:	308030ef          	jal	71f8 <__mulsf3>
    3ef4:	0009e7b7          	lui	a5,0x9e
    3ef8:	9107a583          	lw	a1,-1776(a5) # 9d910 <CSWTCH.6+0x53c>
    3efc:	2fc030ef          	jal	71f8 <__mulsf3>
    3f00:	00a42023          	sw	a0,0(s0)
    3f04:	01242223          	sw	s2,4(s0)
    3f08:	00942423          	sw	s1,8(s0)
    3f0c:	01c12083          	lw	ra,28(sp)
    3f10:	00040513          	mv	a0,s0
    3f14:	01812403          	lw	s0,24(sp)
    3f18:	01412483          	lw	s1,20(sp)
    3f1c:	01012903          	lw	s2,16(sp)
    3f20:	00c12983          	lw	s3,12(sp)
    3f24:	00812a03          	lw	s4,8(sp)
    3f28:	00412a83          	lw	s5,4(sp)
    3f2c:	02010113          	addi	sp,sp,32
    3f30:	00008067          	ret

00003f34 <vec4_length>:
    3f34:	00052583          	lw	a1,0(a0)
    3f38:	fe010113          	addi	sp,sp,-32
    3f3c:	01312623          	sw	s3,12(sp)
    3f40:	00452983          	lw	s3,4(a0)
    3f44:	01212823          	sw	s2,16(sp)
    3f48:	00050793          	mv	a5,a0
    3f4c:	00852903          	lw	s2,8(a0)
    3f50:	00058513          	mv	a0,a1
    3f54:	00112e23          	sw	ra,28(sp)
    3f58:	00812c23          	sw	s0,24(sp)
    3f5c:	00912a23          	sw	s1,20(sp)
    3f60:	00c7a483          	lw	s1,12(a5)
    3f64:	294030ef          	jal	71f8 <__mulsf3>
    3f68:	00050413          	mv	s0,a0
    3f6c:	00098593          	mv	a1,s3
    3f70:	00098513          	mv	a0,s3
    3f74:	284030ef          	jal	71f8 <__mulsf3>
    3f78:	00050593          	mv	a1,a0
    3f7c:	00040513          	mv	a0,s0
    3f80:	5a1020ef          	jal	6d20 <__addsf3>
    3f84:	00050413          	mv	s0,a0
    3f88:	00090593          	mv	a1,s2
    3f8c:	00090513          	mv	a0,s2
    3f90:	268030ef          	jal	71f8 <__mulsf3>
    3f94:	00050593          	mv	a1,a0
    3f98:	00040513          	mv	a0,s0
    3f9c:	585020ef          	jal	6d20 <__addsf3>
    3fa0:	00050413          	mv	s0,a0
    3fa4:	00048593          	mv	a1,s1
    3fa8:	00048513          	mv	a0,s1
    3fac:	24c030ef          	jal	71f8 <__mulsf3>
    3fb0:	00050593          	mv	a1,a0
    3fb4:	00040513          	mv	a0,s0
    3fb8:	569020ef          	jal	6d20 <__addsf3>
    3fbc:	01812403          	lw	s0,24(sp)
    3fc0:	01c12083          	lw	ra,28(sp)
    3fc4:	01412483          	lw	s1,20(sp)
    3fc8:	01012903          	lw	s2,16(sp)
    3fcc:	00c12983          	lw	s3,12(sp)
    3fd0:	02010113          	addi	sp,sp,32
    3fd4:	69c0106f          	j	5670 <sqrtf>

00003fd8 <vec4_add>:
    3fd8:	fe010113          	addi	sp,sp,-32
    3fdc:	00912a23          	sw	s1,20(sp)
    3fe0:	00058493          	mv	s1,a1
    3fe4:	00812c23          	sw	s0,24(sp)
    3fe8:	00462583          	lw	a1,4(a2)
    3fec:	00050413          	mv	s0,a0
    3ff0:	0044a503          	lw	a0,4(s1)
    3ff4:	00112e23          	sw	ra,28(sp)
    3ff8:	01212823          	sw	s2,16(sp)
    3ffc:	01312623          	sw	s3,12(sp)
    4000:	01412423          	sw	s4,8(sp)
    4004:	00060913          	mv	s2,a2
    4008:	519020ef          	jal	6d20 <__addsf3>
    400c:	00892583          	lw	a1,8(s2)
    4010:	00050a13          	mv	s4,a0
    4014:	0084a503          	lw	a0,8(s1)
    4018:	509020ef          	jal	6d20 <__addsf3>
    401c:	00c92583          	lw	a1,12(s2)
    4020:	00050993          	mv	s3,a0
    4024:	00c4a503          	lw	a0,12(s1)
    4028:	4f9020ef          	jal	6d20 <__addsf3>
    402c:	00092583          	lw	a1,0(s2)
    4030:	00050793          	mv	a5,a0
    4034:	0004a503          	lw	a0,0(s1)
    4038:	00078493          	mv	s1,a5
    403c:	4e5020ef          	jal	6d20 <__addsf3>
    4040:	00a42023          	sw	a0,0(s0)
    4044:	01442223          	sw	s4,4(s0)
    4048:	01342423          	sw	s3,8(s0)
    404c:	00942623          	sw	s1,12(s0)
    4050:	01c12083          	lw	ra,28(sp)
    4054:	00040513          	mv	a0,s0
    4058:	01812403          	lw	s0,24(sp)
    405c:	01412483          	lw	s1,20(sp)
    4060:	01012903          	lw	s2,16(sp)
    4064:	00c12983          	lw	s3,12(sp)
    4068:	00812a03          	lw	s4,8(sp)
    406c:	02010113          	addi	sp,sp,32
    4070:	00008067          	ret

00004074 <vec4_sub>:
    4074:	fe010113          	addi	sp,sp,-32
    4078:	00912a23          	sw	s1,20(sp)
    407c:	00058493          	mv	s1,a1
    4080:	00812c23          	sw	s0,24(sp)
    4084:	00462583          	lw	a1,4(a2)
    4088:	00050413          	mv	s0,a0
    408c:	0044a503          	lw	a0,4(s1)
    4090:	00112e23          	sw	ra,28(sp)
    4094:	01212823          	sw	s2,16(sp)
    4098:	01312623          	sw	s3,12(sp)
    409c:	01412423          	sw	s4,8(sp)
    40a0:	00060913          	mv	s2,a2
    40a4:	475020ef          	jal	6d18 <__subsf3>
    40a8:	00892583          	lw	a1,8(s2)
    40ac:	00050a13          	mv	s4,a0
    40b0:	0084a503          	lw	a0,8(s1)
    40b4:	465020ef          	jal	6d18 <__subsf3>
    40b8:	00c92583          	lw	a1,12(s2)
    40bc:	00050993          	mv	s3,a0
    40c0:	00c4a503          	lw	a0,12(s1)
    40c4:	455020ef          	jal	6d18 <__subsf3>
    40c8:	00092583          	lw	a1,0(s2)
    40cc:	00050793          	mv	a5,a0
    40d0:	0004a503          	lw	a0,0(s1)
    40d4:	00078493          	mv	s1,a5
    40d8:	441020ef          	jal	6d18 <__subsf3>
    40dc:	00a42023          	sw	a0,0(s0)
    40e0:	01442223          	sw	s4,4(s0)
    40e4:	01342423          	sw	s3,8(s0)
    40e8:	00942623          	sw	s1,12(s0)
    40ec:	01c12083          	lw	ra,28(sp)
    40f0:	00040513          	mv	a0,s0
    40f4:	01812403          	lw	s0,24(sp)
    40f8:	01412483          	lw	s1,20(sp)
    40fc:	01012903          	lw	s2,16(sp)
    4100:	00c12983          	lw	s3,12(sp)
    4104:	00812a03          	lw	s4,8(sp)
    4108:	02010113          	addi	sp,sp,32
    410c:	00008067          	ret

00004110 <vec4_mul>:
    4110:	fe010113          	addi	sp,sp,-32
    4114:	01212823          	sw	s2,16(sp)
    4118:	00058913          	mv	s2,a1
    411c:	0045a583          	lw	a1,4(a1)
    4120:	00812c23          	sw	s0,24(sp)
    4124:	00050413          	mv	s0,a0
    4128:	00060513          	mv	a0,a2
    412c:	00112e23          	sw	ra,28(sp)
    4130:	00912a23          	sw	s1,20(sp)
    4134:	01312623          	sw	s3,12(sp)
    4138:	01412423          	sw	s4,8(sp)
    413c:	00060493          	mv	s1,a2
    4140:	0b8030ef          	jal	71f8 <__mulsf3>
    4144:	00892583          	lw	a1,8(s2)
    4148:	00050a13          	mv	s4,a0
    414c:	00048513          	mv	a0,s1
    4150:	0a8030ef          	jal	71f8 <__mulsf3>
    4154:	00c92583          	lw	a1,12(s2)
    4158:	00050993          	mv	s3,a0
    415c:	00048513          	mv	a0,s1
    4160:	098030ef          	jal	71f8 <__mulsf3>
    4164:	00050793          	mv	a5,a0
    4168:	00092503          	lw	a0,0(s2)
    416c:	00048593          	mv	a1,s1
    4170:	00078493          	mv	s1,a5
    4174:	084030ef          	jal	71f8 <__mulsf3>
    4178:	00a42023          	sw	a0,0(s0)
    417c:	01442223          	sw	s4,4(s0)
    4180:	01342423          	sw	s3,8(s0)
    4184:	00942623          	sw	s1,12(s0)
    4188:	01c12083          	lw	ra,28(sp)
    418c:	00040513          	mv	a0,s0
    4190:	01812403          	lw	s0,24(sp)
    4194:	01412483          	lw	s1,20(sp)
    4198:	01012903          	lw	s2,16(sp)
    419c:	00c12983          	lw	s3,12(sp)
    41a0:	00812a03          	lw	s4,8(sp)
    41a4:	02010113          	addi	sp,sp,32
    41a8:	00008067          	ret

000041ac <vec4_div>:
    41ac:	fe010113          	addi	sp,sp,-32
    41b0:	00812c23          	sw	s0,24(sp)
    41b4:	00050413          	mv	s0,a0
    41b8:	0045a503          	lw	a0,4(a1)
    41bc:	01212823          	sw	s2,16(sp)
    41c0:	00058913          	mv	s2,a1
    41c4:	00060593          	mv	a1,a2
    41c8:	00112e23          	sw	ra,28(sp)
    41cc:	00912a23          	sw	s1,20(sp)
    41d0:	01312623          	sw	s3,12(sp)
    41d4:	01412423          	sw	s4,8(sp)
    41d8:	00060493          	mv	s1,a2
    41dc:	509020ef          	jal	6ee4 <__divsf3>
    41e0:	00050a13          	mv	s4,a0
    41e4:	00892503          	lw	a0,8(s2)
    41e8:	00048593          	mv	a1,s1
    41ec:	4f9020ef          	jal	6ee4 <__divsf3>
    41f0:	00050993          	mv	s3,a0
    41f4:	00c92503          	lw	a0,12(s2)
    41f8:	00048593          	mv	a1,s1
    41fc:	4e9020ef          	jal	6ee4 <__divsf3>
    4200:	00050793          	mv	a5,a0
    4204:	00092503          	lw	a0,0(s2)
    4208:	00048593          	mv	a1,s1
    420c:	00078493          	mv	s1,a5
    4210:	4d5020ef          	jal	6ee4 <__divsf3>
    4214:	00a42023          	sw	a0,0(s0)
    4218:	01442223          	sw	s4,4(s0)
    421c:	01342423          	sw	s3,8(s0)
    4220:	00942623          	sw	s1,12(s0)
    4224:	01c12083          	lw	ra,28(sp)
    4228:	00040513          	mv	a0,s0
    422c:	01812403          	lw	s0,24(sp)
    4230:	01412483          	lw	s1,20(sp)
    4234:	01012903          	lw	s2,16(sp)
    4238:	00c12983          	lw	s3,12(sp)
    423c:	00812a03          	lw	s4,8(sp)
    4240:	02010113          	addi	sp,sp,32
    4244:	00008067          	ret

00004248 <vec4_normalize>:
    4248:	00052583          	lw	a1,0(a0)
    424c:	fe010113          	addi	sp,sp,-32
    4250:	01412423          	sw	s4,8(sp)
    4254:	00452a03          	lw	s4,4(a0)
    4258:	00812c23          	sw	s0,24(sp)
    425c:	01312623          	sw	s3,12(sp)
    4260:	00050413          	mv	s0,a0
    4264:	00852983          	lw	s3,8(a0)
    4268:	00058513          	mv	a0,a1
    426c:	00112e23          	sw	ra,28(sp)
    4270:	00912a23          	sw	s1,20(sp)
    4274:	01212823          	sw	s2,16(sp)
    4278:	781020ef          	jal	71f8 <__mulsf3>
    427c:	00050493          	mv	s1,a0
    4280:	000a0593          	mv	a1,s4
    4284:	000a0513          	mv	a0,s4
    4288:	771020ef          	jal	71f8 <__mulsf3>
    428c:	00050593          	mv	a1,a0
    4290:	00048513          	mv	a0,s1
    4294:	28d020ef          	jal	6d20 <__addsf3>
    4298:	00050493          	mv	s1,a0
    429c:	00098593          	mv	a1,s3
    42a0:	00098513          	mv	a0,s3
    42a4:	755020ef          	jal	71f8 <__mulsf3>
    42a8:	00c42903          	lw	s2,12(s0)
    42ac:	00050593          	mv	a1,a0
    42b0:	00048513          	mv	a0,s1
    42b4:	26d020ef          	jal	6d20 <__addsf3>
    42b8:	00050493          	mv	s1,a0
    42bc:	00090593          	mv	a1,s2
    42c0:	00090513          	mv	a0,s2
    42c4:	735020ef          	jal	71f8 <__mulsf3>
    42c8:	00050593          	mv	a1,a0
    42cc:	00048513          	mv	a0,s1
    42d0:	251020ef          	jal	6d20 <__addsf3>
    42d4:	39c010ef          	jal	5670 <sqrtf>
    42d8:	00000593          	li	a1,0
    42dc:	00050493          	mv	s1,a0
    42e0:	571020ef          	jal	7050 <__eqsf2>
    42e4:	04050a63          	beqz	a0,4338 <vec4_normalize+0xf0>
    42e8:	00442503          	lw	a0,4(s0)
    42ec:	00048593          	mv	a1,s1
    42f0:	3f5020ef          	jal	6ee4 <__divsf3>
    42f4:	00050993          	mv	s3,a0
    42f8:	00842503          	lw	a0,8(s0)
    42fc:	00048593          	mv	a1,s1
    4300:	3e5020ef          	jal	6ee4 <__divsf3>
    4304:	00050913          	mv	s2,a0
    4308:	00c42503          	lw	a0,12(s0)
    430c:	00048593          	mv	a1,s1
    4310:	3d5020ef          	jal	6ee4 <__divsf3>
    4314:	00050793          	mv	a5,a0
    4318:	00042503          	lw	a0,0(s0)
    431c:	00048593          	mv	a1,s1
    4320:	00078493          	mv	s1,a5
    4324:	3c1020ef          	jal	6ee4 <__divsf3>
    4328:	00a42023          	sw	a0,0(s0)
    432c:	01342223          	sw	s3,4(s0)
    4330:	01242423          	sw	s2,8(s0)
    4334:	00942623          	sw	s1,12(s0)
    4338:	01c12083          	lw	ra,28(sp)
    433c:	01812403          	lw	s0,24(sp)
    4340:	01412483          	lw	s1,20(sp)
    4344:	01012903          	lw	s2,16(sp)
    4348:	00c12983          	lw	s3,12(sp)
    434c:	00812a03          	lw	s4,8(sp)
    4350:	02010113          	addi	sp,sp,32
    4354:	00008067          	ret

00004358 <printc>:
    4358:	04000737          	lui	a4,0x4000
    435c:	04470713          	addi	a4,a4,68 # 4000044 <_stack_end+0x3e625a8>
    4360:	000106b7          	lui	a3,0x10
    4364:	00072783          	lw	a5,0(a4)
    4368:	fed7eee3          	bltu	a5,a3,4364 <printc+0xc>
    436c:	040007b7          	lui	a5,0x4000
    4370:	04a7a023          	sw	a0,64(a5) # 4000040 <_stack_end+0x3e625a4>
    4374:	00008067          	ret

00004378 <print>:
    4378:	00054603          	lbu	a2,0(a0)
    437c:	02060863          	beqz	a2,43ac <print+0x34>
    4380:	04000737          	lui	a4,0x4000
    4384:	040005b7          	lui	a1,0x4000
    4388:	04470713          	addi	a4,a4,68 # 4000044 <_stack_end+0x3e625a8>
    438c:	000106b7          	lui	a3,0x10
    4390:	04058593          	addi	a1,a1,64 # 4000040 <_stack_end+0x3e625a4>
    4394:	00072783          	lw	a5,0(a4)
    4398:	fed7eee3          	bltu	a5,a3,4394 <print+0x1c>
    439c:	00c5a023          	sw	a2,0(a1)
    43a0:	00154603          	lbu	a2,1(a0)
    43a4:	00150513          	addi	a0,a0,1
    43a8:	fe0616e3          	bnez	a2,4394 <print+0x1c>
    43ac:	00008067          	ret

000043b0 <print_dec>:
    43b0:	3b9ad737          	lui	a4,0x3b9ad
    43b4:	040006b7          	lui	a3,0x4000
    43b8:	04000337          	lui	t1,0x4000
    43bc:	00a00593          	li	a1,10
    43c0:	00000793          	li	a5,0
    43c4:	a0070713          	addi	a4,a4,-1536 # 3b9aca00 <_stack_end+0x3b80ef64>
    43c8:	04468693          	addi	a3,a3,68 # 4000044 <_stack_end+0x3e625a8>
    43cc:	00010637          	lui	a2,0x10
    43d0:	04030313          	addi	t1,t1,64 # 4000040 <_stack_end+0x3e625a4>
    43d4:	00a00893          	li	a7,10
    43d8:	04e57063          	bgeu	a0,a4,4418 <print_dec+0x68>
    43dc:	02079e63          	bnez	a5,4418 <print_dec+0x68>
    43e0:	fff58593          	addi	a1,a1,-1
    43e4:	02e57533          	remu	a0,a0,a4
    43e8:	03175733          	divu	a4,a4,a7
    43ec:	fe0596e3          	bnez	a1,43d8 <print_dec+0x28>
    43f0:	02079263          	bnez	a5,4414 <print_dec+0x64>
    43f4:	04000737          	lui	a4,0x4000
    43f8:	04470713          	addi	a4,a4,68 # 4000044 <_stack_end+0x3e625a8>
    43fc:	000106b7          	lui	a3,0x10
    4400:	00072783          	lw	a5,0(a4)
    4404:	fed7eee3          	bltu	a5,a3,4400 <print_dec+0x50>
    4408:	040007b7          	lui	a5,0x4000
    440c:	03000713          	li	a4,48
    4410:	04e7a023          	sw	a4,64(a5) # 4000040 <_stack_end+0x3e625a4>
    4414:	00008067          	ret
    4418:	02e55833          	divu	a6,a0,a4
    441c:	03080813          	addi	a6,a6,48
    4420:	0ff87813          	zext.b	a6,a6
    4424:	0006a783          	lw	a5,0(a3) # 10000 <__global_pointer+0x8484>
    4428:	fec7eee3          	bltu	a5,a2,4424 <print_dec+0x74>
    442c:	01032023          	sw	a6,0(t1)
    4430:	00100793          	li	a5,1
    4434:	fadff06f          	j	43e0 <print_dec+0x30>

00004438 <print_hex32>:
    4438:	04000737          	lui	a4,0x4000
    443c:	04470713          	addi	a4,a4,68 # 4000044 <_stack_end+0x3e625a8>
    4440:	000106b7          	lui	a3,0x10
    4444:	00072783          	lw	a5,0(a4)
    4448:	fed7eee3          	bltu	a5,a3,4444 <print_hex32+0xc>
    444c:	03000693          	li	a3,48
    4450:	040007b7          	lui	a5,0x4000
    4454:	04000737          	lui	a4,0x4000
    4458:	04d7a023          	sw	a3,64(a5) # 4000040 <_stack_end+0x3e625a4>
    445c:	04470713          	addi	a4,a4,68 # 4000044 <_stack_end+0x3e625a8>
    4460:	000106b7          	lui	a3,0x10
    4464:	00072783          	lw	a5,0(a4)
    4468:	fed7eee3          	bltu	a5,a3,4464 <print_hex32+0x2c>
    446c:	04000837          	lui	a6,0x4000
    4470:	04080813          	addi	a6,a6,64 # 4000040 <_stack_end+0x3e625a4>
    4474:	04000737          	lui	a4,0x4000
    4478:	07800793          	li	a5,120
    447c:	00f82023          	sw	a5,0(a6)
    4480:	01c00613          	li	a2,28
    4484:	00900313          	li	t1,9
    4488:	04470713          	addi	a4,a4,68 # 4000044 <_stack_end+0x3e625a8>
    448c:	000106b7          	lui	a3,0x10
    4490:	ffc00893          	li	a7,-4
    4494:	00c557b3          	srl	a5,a0,a2
    4498:	00f7f793          	andi	a5,a5,15
    449c:	03778593          	addi	a1,a5,55
    44a0:	00f36463          	bltu	t1,a5,44a8 <print_hex32+0x70>
    44a4:	03078593          	addi	a1,a5,48
    44a8:	00072783          	lw	a5,0(a4)
    44ac:	fed7eee3          	bltu	a5,a3,44a8 <print_hex32+0x70>
    44b0:	00b82023          	sw	a1,0(a6)
    44b4:	ffc60613          	addi	a2,a2,-4 # fffc <__global_pointer+0x8480>
    44b8:	fd161ee3          	bne	a2,a7,4494 <print_hex32+0x5c>
    44bc:	00008067          	ret

000044c0 <handle_exception>:
    44c0:	00200793          	li	a5,2
    44c4:	18f80863          	beq	a6,a5,4654 <handle_exception+0x194>
    44c8:	00b00793          	li	a5,11
    44cc:	12f80063          	beq	a6,a5,45ec <handle_exception+0x12c>
    44d0:	04000737          	lui	a4,0x4000
    44d4:	14081463          	bnez	a6,461c <handle_exception+0x15c>
    44d8:	04000837          	lui	a6,0x4000
    44dc:	0009e637          	lui	a2,0x9e
    44e0:	a1460613          	addi	a2,a2,-1516 # 9da14 <CSWTCH.6+0x640>
    44e4:	00a00593          	li	a1,10
    44e8:	04470713          	addi	a4,a4,68 # 4000044 <_stack_end+0x3e625a8>
    44ec:	000106b7          	lui	a3,0x10
    44f0:	04080813          	addi	a6,a6,64 # 4000040 <_stack_end+0x3e625a4>
    44f4:	00072783          	lw	a5,0(a4)
    44f8:	fed7eee3          	bltu	a5,a3,44f4 <handle_exception+0x34>
    44fc:	00b82023          	sw	a1,0(a6)
    4500:	00164583          	lbu	a1,1(a2)
    4504:	00160613          	addi	a2,a2,1
    4508:	fe0596e3          	bnez	a1,44f4 <handle_exception+0x34>
    450c:	04000737          	lui	a4,0x4000
    4510:	04000837          	lui	a6,0x4000
    4514:	0009e637          	lui	a2,0x9e
    4518:	a8860613          	addi	a2,a2,-1400 # 9da88 <CSWTCH.6+0x6b4>
    451c:	04500593          	li	a1,69
    4520:	04470713          	addi	a4,a4,68 # 4000044 <_stack_end+0x3e625a8>
    4524:	000106b7          	lui	a3,0x10
    4528:	04080813          	addi	a6,a6,64 # 4000040 <_stack_end+0x3e625a4>
    452c:	00072783          	lw	a5,0(a4)
    4530:	fed7eee3          	bltu	a5,a3,452c <handle_exception+0x6c>
    4534:	00b82023          	sw	a1,0(a6)
    4538:	00164583          	lbu	a1,1(a2)
    453c:	00160613          	addi	a2,a2,1
    4540:	fe0596e3          	bnez	a1,452c <handle_exception+0x6c>
    4544:	04000737          	lui	a4,0x4000
    4548:	04470713          	addi	a4,a4,68 # 4000044 <_stack_end+0x3e625a8>
    454c:	000106b7          	lui	a3,0x10
    4550:	00072783          	lw	a5,0(a4)
    4554:	fed7eee3          	bltu	a5,a3,4550 <handle_exception+0x90>
    4558:	03000693          	li	a3,48
    455c:	040007b7          	lui	a5,0x4000
    4560:	04000737          	lui	a4,0x4000
    4564:	04d7a023          	sw	a3,64(a5) # 4000040 <_stack_end+0x3e625a4>
    4568:	04470713          	addi	a4,a4,68 # 4000044 <_stack_end+0x3e625a8>
    456c:	000106b7          	lui	a3,0x10
    4570:	00072783          	lw	a5,0(a4)
    4574:	fed7eee3          	bltu	a5,a3,4570 <handle_exception+0xb0>
    4578:	04000837          	lui	a6,0x4000
    457c:	04080813          	addi	a6,a6,64 # 4000040 <_stack_end+0x3e625a4>
    4580:	04000737          	lui	a4,0x4000
    4584:	07800793          	li	a5,120
    4588:	00f82023          	sw	a5,0(a6)
    458c:	01c00613          	li	a2,28
    4590:	00900313          	li	t1,9
    4594:	04470713          	addi	a4,a4,68 # 4000044 <_stack_end+0x3e625a8>
    4598:	000106b7          	lui	a3,0x10
    459c:	ffc00893          	li	a7,-4
    45a0:	00c557b3          	srl	a5,a0,a2
    45a4:	00f7f793          	andi	a5,a5,15
    45a8:	03778593          	addi	a1,a5,55
    45ac:	00f36463          	bltu	t1,a5,45b4 <handle_exception+0xf4>
    45b0:	03078593          	addi	a1,a5,48
    45b4:	00072783          	lw	a5,0(a4)
    45b8:	fed7eee3          	bltu	a5,a3,45b4 <handle_exception+0xf4>
    45bc:	00b82023          	sw	a1,0(a6)
    45c0:	ffc60613          	addi	a2,a2,-4
    45c4:	fd161ee3          	bne	a2,a7,45a0 <handle_exception+0xe0>
    45c8:	04000737          	lui	a4,0x4000
    45cc:	04470713          	addi	a4,a4,68 # 4000044 <_stack_end+0x3e625a8>
    45d0:	000106b7          	lui	a3,0x10
    45d4:	00072783          	lw	a5,0(a4)
    45d8:	fed7eee3          	bltu	a5,a3,45d4 <handle_exception+0x114>
    45dc:	040007b7          	lui	a5,0x4000
    45e0:	00a00713          	li	a4,10
    45e4:	04e7a023          	sw	a4,64(a5) # 4000040 <_stack_end+0x3e625a4>
    45e8:	0000006f          	j	45e8 <handle_exception+0x128>
    45ec:	00400793          	li	a5,4
    45f0:	0af88063          	beq	a7,a5,4690 <handle_exception+0x1d0>
    45f4:	0d089a63          	bne	a7,a6,46c8 <handle_exception+0x208>
    45f8:	04000737          	lui	a4,0x4000
    45fc:	04470713          	addi	a4,a4,68 # 4000044 <_stack_end+0x3e625a8>
    4600:	000106b7          	lui	a3,0x10
    4604:	00072783          	lw	a5,0(a4)
    4608:	fed7eee3          	bltu	a5,a3,4604 <handle_exception+0x144>
    460c:	040007b7          	lui	a5,0x4000
    4610:	0ff57513          	zext.b	a0,a0
    4614:	04a7a023          	sw	a0,64(a5) # 4000040 <_stack_end+0x3e625a4>
    4618:	00008067          	ret
    461c:	04000837          	lui	a6,0x4000
    4620:	0009e637          	lui	a2,0x9e
    4624:	a6860613          	addi	a2,a2,-1432 # 9da68 <CSWTCH.6+0x694>
    4628:	00a00593          	li	a1,10
    462c:	04470713          	addi	a4,a4,68
    4630:	000106b7          	lui	a3,0x10
    4634:	04080813          	addi	a6,a6,64 # 4000040 <_stack_end+0x3e625a4>
    4638:	00072783          	lw	a5,0(a4)
    463c:	fed7eee3          	bltu	a5,a3,4638 <handle_exception+0x178>
    4640:	00b82023          	sw	a1,0(a6)
    4644:	00164583          	lbu	a1,1(a2)
    4648:	00160613          	addi	a2,a2,1
    464c:	fe0596e3          	bnez	a1,4638 <handle_exception+0x178>
    4650:	ebdff06f          	j	450c <handle_exception+0x4c>
    4654:	04000737          	lui	a4,0x4000
    4658:	04000837          	lui	a6,0x4000
    465c:	0009e637          	lui	a2,0x9e
    4660:	a4460613          	addi	a2,a2,-1468 # 9da44 <CSWTCH.6+0x670>
    4664:	00a00593          	li	a1,10
    4668:	04470713          	addi	a4,a4,68 # 4000044 <_stack_end+0x3e625a8>
    466c:	000106b7          	lui	a3,0x10
    4670:	04080813          	addi	a6,a6,64 # 4000040 <_stack_end+0x3e625a4>
    4674:	00072783          	lw	a5,0(a4)
    4678:	fed7eee3          	bltu	a5,a3,4674 <handle_exception+0x1b4>
    467c:	00b82023          	sw	a1,0(a6)
    4680:	00164583          	lbu	a1,1(a2)
    4684:	00160613          	addi	a2,a2,1
    4688:	fe0596e3          	bnez	a1,4674 <handle_exception+0x1b4>
    468c:	e81ff06f          	j	450c <handle_exception+0x4c>
    4690:	00054603          	lbu	a2,0(a0)
    4694:	02060a63          	beqz	a2,46c8 <handle_exception+0x208>
    4698:	04000737          	lui	a4,0x4000
    469c:	040005b7          	lui	a1,0x4000
    46a0:	04470713          	addi	a4,a4,68 # 4000044 <_stack_end+0x3e625a8>
    46a4:	000106b7          	lui	a3,0x10
    46a8:	04058593          	addi	a1,a1,64 # 4000040 <_stack_end+0x3e625a4>
    46ac:	00072783          	lw	a5,0(a4)
    46b0:	fed7eee3          	bltu	a5,a3,46ac <handle_exception+0x1ec>
    46b4:	00c5a023          	sw	a2,0(a1)
    46b8:	00154603          	lbu	a2,1(a0)
    46bc:	00150513          	addi	a0,a0,1
    46c0:	fe0616e3          	bnez	a2,46ac <handle_exception+0x1ec>
    46c4:	00008067          	ret
    46c8:	00008067          	ret

000046cc <nextprime>:
    46cc:	00200713          	li	a4,2
    46d0:	00050793          	mv	a5,a0
    46d4:	02a74063          	blt	a4,a0,46f4 <nextprime+0x28>
    46d8:	00100513          	li	a0,1
    46dc:	00f05a63          	blez	a5,46f0 <nextprime+0x24>
    46e0:	fff78793          	addi	a5,a5,-1
    46e4:	00f037b3          	snez	a5,a5
    46e8:	00278513          	addi	a0,a5,2
    46ec:	00008067          	ret
    46f0:	00008067          	ret
    46f4:	00150793          	addi	a5,a0,1
    46f8:	0017e513          	ori	a0,a5,1
    46fc:	00300613          	li	a2,3
    4700:	02c567b3          	rem	a5,a0,a2
    4704:	40155693          	srai	a3,a0,0x1
    4708:	02078263          	beqz	a5,472c <nextprime+0x60>
    470c:	00268693          	addi	a3,a3,2 # 10002 <__global_pointer+0x8486>
    4710:	00300793          	li	a5,3
    4714:	00c0006f          	j	4720 <nextprime+0x54>
    4718:	02f56733          	rem	a4,a0,a5
    471c:	00070863          	beqz	a4,472c <nextprime+0x60>
    4720:	00178793          	addi	a5,a5,1
    4724:	fef69ae3          	bne	a3,a5,4718 <nextprime+0x4c>
    4728:	00008067          	ret
    472c:	00250513          	addi	a0,a0,2
    4730:	fd1ff06f          	j	4700 <nextprime+0x34>

00004734 <rotation_matrix2>:
    4734:	fe010113          	addi	sp,sp,-32
    4738:	00812c23          	sw	s0,24(sp)
    473c:	00050413          	mv	s0,a0
    4740:	00058513          	mv	a0,a1
    4744:	00112e23          	sw	ra,28(sp)
    4748:	00912a23          	sw	s1,20(sp)
    474c:	01212823          	sw	s2,16(sp)
    4750:	01312623          	sw	s3,12(sp)
    4754:	00058493          	mv	s1,a1
    4758:	7d9000ef          	jal	5730 <cos>
    475c:	00050913          	mv	s2,a0
    4760:	00048513          	mv	a0,s1
    4764:	1bc010ef          	jal	5920 <sin>
    4768:	00050993          	mv	s3,a0
    476c:	00048513          	mv	a0,s1
    4770:	1b0010ef          	jal	5920 <sin>
    4774:	00050793          	mv	a5,a0
    4778:	00048513          	mv	a0,s1
    477c:	00078493          	mv	s1,a5
    4780:	7b1000ef          	jal	5730 <cos>
    4784:	800007b7          	lui	a5,0x80000
    4788:	0137c7b3          	xor	a5,a5,s3
    478c:	01242023          	sw	s2,0(s0)
    4790:	00942423          	sw	s1,8(s0)
    4794:	00a42623          	sw	a0,12(s0)
    4798:	01c12083          	lw	ra,28(sp)
    479c:	00f42223          	sw	a5,4(s0)
    47a0:	00040513          	mv	a0,s0
    47a4:	01812403          	lw	s0,24(sp)
    47a8:	01412483          	lw	s1,20(sp)
    47ac:	01012903          	lw	s2,16(sp)
    47b0:	00c12983          	lw	s3,12(sp)
    47b4:	02010113          	addi	sp,sp,32
    47b8:	00008067          	ret

000047bc <rotation_matrix3>:
    47bc:	fe010113          	addi	sp,sp,-32
    47c0:	00812c23          	sw	s0,24(sp)
    47c4:	00050413          	mv	s0,a0
    47c8:	00058513          	mv	a0,a1
    47cc:	00112e23          	sw	ra,28(sp)
    47d0:	00912a23          	sw	s1,20(sp)
    47d4:	01212823          	sw	s2,16(sp)
    47d8:	01312623          	sw	s3,12(sp)
    47dc:	00058493          	mv	s1,a1
    47e0:	751000ef          	jal	5730 <cos>
    47e4:	00050913          	mv	s2,a0
    47e8:	00048513          	mv	a0,s1
    47ec:	134010ef          	jal	5920 <sin>
    47f0:	00050993          	mv	s3,a0
    47f4:	00048513          	mv	a0,s1
    47f8:	128010ef          	jal	5920 <sin>
    47fc:	00050793          	mv	a5,a0
    4800:	00048513          	mv	a0,s1
    4804:	00078493          	mv	s1,a5
    4808:	729000ef          	jal	5730 <cos>
    480c:	00000793          	li	a5,0
    4810:	0009e6b7          	lui	a3,0x9e
    4814:	00f42423          	sw	a5,8(s0)
    4818:	00f42a23          	sw	a5,20(s0)
    481c:	00f42c23          	sw	a5,24(s0)
    4820:	00f42e23          	sw	a5,28(s0)
    4824:	9086a783          	lw	a5,-1784(a3) # 9d908 <CSWTCH.6+0x534>
    4828:	80000737          	lui	a4,0x80000
    482c:	01374733          	xor	a4,a4,s3
    4830:	01242023          	sw	s2,0(s0)
    4834:	00942623          	sw	s1,12(s0)
    4838:	00a42823          	sw	a0,16(s0)
    483c:	01c12083          	lw	ra,28(sp)
    4840:	00e42223          	sw	a4,4(s0)
    4844:	02f42023          	sw	a5,32(s0)
    4848:	00040513          	mv	a0,s0
    484c:	01812403          	lw	s0,24(sp)
    4850:	01412483          	lw	s1,20(sp)
    4854:	01012903          	lw	s2,16(sp)
    4858:	00c12983          	lw	s3,12(sp)
    485c:	02010113          	addi	sp,sp,32
    4860:	00008067          	ret

00004864 <rotation_x_matrix4>:
    4864:	fe010113          	addi	sp,sp,-32
    4868:	00812c23          	sw	s0,24(sp)
    486c:	00050413          	mv	s0,a0
    4870:	00058513          	mv	a0,a1
    4874:	00112e23          	sw	ra,28(sp)
    4878:	00912a23          	sw	s1,20(sp)
    487c:	01212823          	sw	s2,16(sp)
    4880:	01312623          	sw	s3,12(sp)
    4884:	00058493          	mv	s1,a1
    4888:	6a9000ef          	jal	5730 <cos>
    488c:	00050913          	mv	s2,a0
    4890:	00048513          	mv	a0,s1
    4894:	08c010ef          	jal	5920 <sin>
    4898:	00050993          	mv	s3,a0
    489c:	00048513          	mv	a0,s1
    48a0:	080010ef          	jal	5920 <sin>
    48a4:	00050793          	mv	a5,a0
    48a8:	00048513          	mv	a0,s1
    48ac:	00078493          	mv	s1,a5
    48b0:	681000ef          	jal	5730 <cos>
    48b4:	0009e7b7          	lui	a5,0x9e
    48b8:	9087a683          	lw	a3,-1784(a5) # 9d908 <CSWTCH.6+0x534>
    48bc:	80000737          	lui	a4,0x80000
    48c0:	00000793          	li	a5,0
    48c4:	01374733          	xor	a4,a4,s3
    48c8:	01242a23          	sw	s2,20(s0)
    48cc:	02942223          	sw	s1,36(s0)
    48d0:	02a42423          	sw	a0,40(s0)
    48d4:	01c12083          	lw	ra,28(sp)
    48d8:	00d42023          	sw	a3,0(s0)
    48dc:	00f42223          	sw	a5,4(s0)
    48e0:	00f42423          	sw	a5,8(s0)
    48e4:	00f42623          	sw	a5,12(s0)
    48e8:	00f42823          	sw	a5,16(s0)
    48ec:	00e42c23          	sw	a4,24(s0)
    48f0:	00f42e23          	sw	a5,28(s0)
    48f4:	02f42023          	sw	a5,32(s0)
    48f8:	02f42623          	sw	a5,44(s0)
    48fc:	02f42823          	sw	a5,48(s0)
    4900:	02f42a23          	sw	a5,52(s0)
    4904:	02f42c23          	sw	a5,56(s0)
    4908:	02d42e23          	sw	a3,60(s0)
    490c:	00040513          	mv	a0,s0
    4910:	01812403          	lw	s0,24(sp)
    4914:	01412483          	lw	s1,20(sp)
    4918:	01012903          	lw	s2,16(sp)
    491c:	00c12983          	lw	s3,12(sp)
    4920:	02010113          	addi	sp,sp,32
    4924:	00008067          	ret

00004928 <rotation_y_matrix4>:
    4928:	fe010113          	addi	sp,sp,-32
    492c:	00812c23          	sw	s0,24(sp)
    4930:	00050413          	mv	s0,a0
    4934:	00058513          	mv	a0,a1
    4938:	00112e23          	sw	ra,28(sp)
    493c:	00912a23          	sw	s1,20(sp)
    4940:	01212823          	sw	s2,16(sp)
    4944:	01312623          	sw	s3,12(sp)
    4948:	00058493          	mv	s1,a1
    494c:	5e5000ef          	jal	5730 <cos>
    4950:	00050993          	mv	s3,a0
    4954:	00048513          	mv	a0,s1
    4958:	7c9000ef          	jal	5920 <sin>
    495c:	00050913          	mv	s2,a0
    4960:	00048513          	mv	a0,s1
    4964:	7bd000ef          	jal	5920 <sin>
    4968:	00050793          	mv	a5,a0
    496c:	00048513          	mv	a0,s1
    4970:	00078493          	mv	s1,a5
    4974:	5bd000ef          	jal	5730 <cos>
    4978:	0009e7b7          	lui	a5,0x9e
    497c:	9087a683          	lw	a3,-1784(a5) # 9d908 <CSWTCH.6+0x534>
    4980:	80000737          	lui	a4,0x80000
    4984:	00000793          	li	a5,0
    4988:	00974733          	xor	a4,a4,s1
    498c:	01342023          	sw	s3,0(s0)
    4990:	01242423          	sw	s2,8(s0)
    4994:	02a42423          	sw	a0,40(s0)
    4998:	01c12083          	lw	ra,28(sp)
    499c:	00f42223          	sw	a5,4(s0)
    49a0:	00f42623          	sw	a5,12(s0)
    49a4:	00f42823          	sw	a5,16(s0)
    49a8:	00d42a23          	sw	a3,20(s0)
    49ac:	00f42c23          	sw	a5,24(s0)
    49b0:	00f42e23          	sw	a5,28(s0)
    49b4:	02e42023          	sw	a4,32(s0)
    49b8:	02f42223          	sw	a5,36(s0)
    49bc:	02f42623          	sw	a5,44(s0)
    49c0:	02f42823          	sw	a5,48(s0)
    49c4:	02f42a23          	sw	a5,52(s0)
    49c8:	02f42c23          	sw	a5,56(s0)
    49cc:	02d42e23          	sw	a3,60(s0)
    49d0:	00040513          	mv	a0,s0
    49d4:	01812403          	lw	s0,24(sp)
    49d8:	01412483          	lw	s1,20(sp)
    49dc:	01012903          	lw	s2,16(sp)
    49e0:	00c12983          	lw	s3,12(sp)
    49e4:	02010113          	addi	sp,sp,32
    49e8:	00008067          	ret

000049ec <rotation_z_matrix4>:
    49ec:	fe010113          	addi	sp,sp,-32
    49f0:	00812c23          	sw	s0,24(sp)
    49f4:	00050413          	mv	s0,a0
    49f8:	00058513          	mv	a0,a1
    49fc:	00112e23          	sw	ra,28(sp)
    4a00:	00912a23          	sw	s1,20(sp)
    4a04:	01212823          	sw	s2,16(sp)
    4a08:	01312623          	sw	s3,12(sp)
    4a0c:	00058493          	mv	s1,a1
    4a10:	521000ef          	jal	5730 <cos>
    4a14:	00050913          	mv	s2,a0
    4a18:	00048513          	mv	a0,s1
    4a1c:	705000ef          	jal	5920 <sin>
    4a20:	00050993          	mv	s3,a0
    4a24:	00048513          	mv	a0,s1
    4a28:	6f9000ef          	jal	5920 <sin>
    4a2c:	00050793          	mv	a5,a0
    4a30:	00048513          	mv	a0,s1
    4a34:	00078493          	mv	s1,a5
    4a38:	4f9000ef          	jal	5730 <cos>
    4a3c:	0009e7b7          	lui	a5,0x9e
    4a40:	9087a683          	lw	a3,-1784(a5) # 9d908 <CSWTCH.6+0x534>
    4a44:	80000737          	lui	a4,0x80000
    4a48:	00000793          	li	a5,0
    4a4c:	01374733          	xor	a4,a4,s3
    4a50:	01242023          	sw	s2,0(s0)
    4a54:	00942823          	sw	s1,16(s0)
    4a58:	00a42a23          	sw	a0,20(s0)
    4a5c:	01c12083          	lw	ra,28(sp)
    4a60:	00e42223          	sw	a4,4(s0)
    4a64:	00f42423          	sw	a5,8(s0)
    4a68:	00f42623          	sw	a5,12(s0)
    4a6c:	00f42c23          	sw	a5,24(s0)
    4a70:	00f42e23          	sw	a5,28(s0)
    4a74:	02f42023          	sw	a5,32(s0)
    4a78:	02f42223          	sw	a5,36(s0)
    4a7c:	02d42423          	sw	a3,40(s0)
    4a80:	02f42623          	sw	a5,44(s0)
    4a84:	02f42823          	sw	a5,48(s0)
    4a88:	02f42a23          	sw	a5,52(s0)
    4a8c:	02f42c23          	sw	a5,56(s0)
    4a90:	02d42e23          	sw	a3,60(s0)
    4a94:	00040513          	mv	a0,s0
    4a98:	01812403          	lw	s0,24(sp)
    4a9c:	01412483          	lw	s1,20(sp)
    4aa0:	01012903          	lw	s2,16(sp)
    4aa4:	00c12983          	lw	s3,12(sp)
    4aa8:	02010113          	addi	sp,sp,32
    4aac:	00008067          	ret

00004ab0 <translation_x_matrix4>:
    4ab0:	0009e7b7          	lui	a5,0x9e
    4ab4:	9087a683          	lw	a3,-1784(a5) # 9d908 <CSWTCH.6+0x534>
    4ab8:	00000713          	li	a4,0
    4abc:	00e52223          	sw	a4,4(a0)
    4ac0:	00d52023          	sw	a3,0(a0)
    4ac4:	00e52423          	sw	a4,8(a0)
    4ac8:	00b52623          	sw	a1,12(a0)
    4acc:	00e52823          	sw	a4,16(a0)
    4ad0:	00d52a23          	sw	a3,20(a0)
    4ad4:	00e52c23          	sw	a4,24(a0)
    4ad8:	00e52e23          	sw	a4,28(a0)
    4adc:	02e52023          	sw	a4,32(a0)
    4ae0:	02e52223          	sw	a4,36(a0)
    4ae4:	02d52423          	sw	a3,40(a0)
    4ae8:	02e52623          	sw	a4,44(a0)
    4aec:	02e52823          	sw	a4,48(a0)
    4af0:	02e52a23          	sw	a4,52(a0)
    4af4:	02e52c23          	sw	a4,56(a0)
    4af8:	02d52e23          	sw	a3,60(a0)
    4afc:	00008067          	ret

00004b00 <translation_y_matrix4>:
    4b00:	0009e7b7          	lui	a5,0x9e
    4b04:	9087a683          	lw	a3,-1784(a5) # 9d908 <CSWTCH.6+0x534>
    4b08:	00000713          	li	a4,0
    4b0c:	00e52223          	sw	a4,4(a0)
    4b10:	00d52023          	sw	a3,0(a0)
    4b14:	00e52423          	sw	a4,8(a0)
    4b18:	00e52623          	sw	a4,12(a0)
    4b1c:	00e52823          	sw	a4,16(a0)
    4b20:	00d52a23          	sw	a3,20(a0)
    4b24:	00e52c23          	sw	a4,24(a0)
    4b28:	00b52e23          	sw	a1,28(a0)
    4b2c:	02e52023          	sw	a4,32(a0)
    4b30:	02e52223          	sw	a4,36(a0)
    4b34:	02d52423          	sw	a3,40(a0)
    4b38:	02e52623          	sw	a4,44(a0)
    4b3c:	02e52823          	sw	a4,48(a0)
    4b40:	02e52a23          	sw	a4,52(a0)
    4b44:	02e52c23          	sw	a4,56(a0)
    4b48:	02d52e23          	sw	a3,60(a0)
    4b4c:	00008067          	ret

00004b50 <translation_z_matrix4>:
    4b50:	0009e7b7          	lui	a5,0x9e
    4b54:	9087a683          	lw	a3,-1784(a5) # 9d908 <CSWTCH.6+0x534>
    4b58:	00000713          	li	a4,0
    4b5c:	00e52223          	sw	a4,4(a0)
    4b60:	00d52023          	sw	a3,0(a0)
    4b64:	00e52423          	sw	a4,8(a0)
    4b68:	00e52623          	sw	a4,12(a0)
    4b6c:	00e52823          	sw	a4,16(a0)
    4b70:	00d52a23          	sw	a3,20(a0)
    4b74:	00e52c23          	sw	a4,24(a0)
    4b78:	00e52e23          	sw	a4,28(a0)
    4b7c:	02e52023          	sw	a4,32(a0)
    4b80:	02e52223          	sw	a4,36(a0)
    4b84:	02d52423          	sw	a3,40(a0)
    4b88:	02b52623          	sw	a1,44(a0)
    4b8c:	02e52823          	sw	a4,48(a0)
    4b90:	02e52a23          	sw	a4,52(a0)
    4b94:	02e52c23          	sw	a4,56(a0)
    4b98:	02d52e23          	sw	a3,60(a0)
    4b9c:	00008067          	ret

00004ba0 <mat2_mul_vec2>:
    4ba0:	fc010113          	addi	sp,sp,-64
    4ba4:	03212823          	sw	s2,48(sp)
    4ba8:	00058913          	mv	s2,a1
    4bac:	00852583          	lw	a1,8(a0)
    4bb0:	02812c23          	sw	s0,56(sp)
    4bb4:	00050413          	mv	s0,a0
    4bb8:	00090513          	mv	a0,s2
    4bbc:	02112e23          	sw	ra,60(sp)
    4bc0:	02912a23          	sw	s1,52(sp)
    4bc4:	03312623          	sw	s3,44(sp)
    4bc8:	00060493          	mv	s1,a2
    4bcc:	62c020ef          	jal	71f8 <__mulsf3>
    4bd0:	00c42583          	lw	a1,12(s0)
    4bd4:	00050993          	mv	s3,a0
    4bd8:	00048513          	mv	a0,s1
    4bdc:	61c020ef          	jal	71f8 <__mulsf3>
    4be0:	00050593          	mv	a1,a0
    4be4:	00098513          	mv	a0,s3
    4be8:	138020ef          	jal	6d20 <__addsf3>
    4bec:	00042583          	lw	a1,0(s0)
    4bf0:	00050793          	mv	a5,a0
    4bf4:	00090513          	mv	a0,s2
    4bf8:	00078913          	mv	s2,a5
    4bfc:	5fc020ef          	jal	71f8 <__mulsf3>
    4c00:	00442583          	lw	a1,4(s0)
    4c04:	00050793          	mv	a5,a0
    4c08:	00048513          	mv	a0,s1
    4c0c:	00078413          	mv	s0,a5
    4c10:	5e8020ef          	jal	71f8 <__mulsf3>
    4c14:	00050593          	mv	a1,a0
    4c18:	00040513          	mv	a0,s0
    4c1c:	104020ef          	jal	6d20 <__addsf3>
    4c20:	03c12083          	lw	ra,60(sp)
    4c24:	03812403          	lw	s0,56(sp)
    4c28:	03412483          	lw	s1,52(sp)
    4c2c:	02c12983          	lw	s3,44(sp)
    4c30:	00090593          	mv	a1,s2
    4c34:	03012903          	lw	s2,48(sp)
    4c38:	04010113          	addi	sp,sp,64
    4c3c:	00008067          	ret

00004c40 <mat3_mul_vec3>:
    4c40:	fe010113          	addi	sp,sp,-32
    4c44:	01512223          	sw	s5,4(sp)
    4c48:	00062a83          	lw	s5,0(a2)
    4c4c:	00812c23          	sw	s0,24(sp)
    4c50:	00058413          	mv	s0,a1
    4c54:	00c5a583          	lw	a1,12(a1)
    4c58:	00912a23          	sw	s1,20(sp)
    4c5c:	00050493          	mv	s1,a0
    4c60:	000a8513          	mv	a0,s5
    4c64:	00112e23          	sw	ra,28(sp)
    4c68:	01212823          	sw	s2,16(sp)
    4c6c:	01312623          	sw	s3,12(sp)
    4c70:	01412423          	sw	s4,8(sp)
    4c74:	01612023          	sw	s6,0(sp)
    4c78:	00862a03          	lw	s4,8(a2)
    4c7c:	00462b03          	lw	s6,4(a2)
    4c80:	578020ef          	jal	71f8 <__mulsf3>
    4c84:	01042583          	lw	a1,16(s0)
    4c88:	00050913          	mv	s2,a0
    4c8c:	000b0513          	mv	a0,s6
    4c90:	568020ef          	jal	71f8 <__mulsf3>
    4c94:	00050593          	mv	a1,a0
    4c98:	00090513          	mv	a0,s2
    4c9c:	084020ef          	jal	6d20 <__addsf3>
    4ca0:	01442583          	lw	a1,20(s0)
    4ca4:	00050913          	mv	s2,a0
    4ca8:	000a0513          	mv	a0,s4
    4cac:	54c020ef          	jal	71f8 <__mulsf3>
    4cb0:	00050593          	mv	a1,a0
    4cb4:	00090513          	mv	a0,s2
    4cb8:	068020ef          	jal	6d20 <__addsf3>
    4cbc:	01842583          	lw	a1,24(s0)
    4cc0:	00050993          	mv	s3,a0
    4cc4:	000a8513          	mv	a0,s5
    4cc8:	530020ef          	jal	71f8 <__mulsf3>
    4ccc:	01c42583          	lw	a1,28(s0)
    4cd0:	00050913          	mv	s2,a0
    4cd4:	000b0513          	mv	a0,s6
    4cd8:	520020ef          	jal	71f8 <__mulsf3>
    4cdc:	00050593          	mv	a1,a0
    4ce0:	00090513          	mv	a0,s2
    4ce4:	03c020ef          	jal	6d20 <__addsf3>
    4ce8:	02042583          	lw	a1,32(s0)
    4cec:	00050913          	mv	s2,a0
    4cf0:	000a0513          	mv	a0,s4
    4cf4:	504020ef          	jal	71f8 <__mulsf3>
    4cf8:	00050593          	mv	a1,a0
    4cfc:	00090513          	mv	a0,s2
    4d00:	020020ef          	jal	6d20 <__addsf3>
    4d04:	00042583          	lw	a1,0(s0)
    4d08:	00050913          	mv	s2,a0
    4d0c:	000a8513          	mv	a0,s5
    4d10:	4e8020ef          	jal	71f8 <__mulsf3>
    4d14:	00442583          	lw	a1,4(s0)
    4d18:	00050a93          	mv	s5,a0
    4d1c:	000b0513          	mv	a0,s6
    4d20:	4d8020ef          	jal	71f8 <__mulsf3>
    4d24:	00050593          	mv	a1,a0
    4d28:	000a8513          	mv	a0,s5
    4d2c:	7f5010ef          	jal	6d20 <__addsf3>
    4d30:	00842583          	lw	a1,8(s0)
    4d34:	00050793          	mv	a5,a0
    4d38:	000a0513          	mv	a0,s4
    4d3c:	00078413          	mv	s0,a5
    4d40:	4b8020ef          	jal	71f8 <__mulsf3>
    4d44:	00050593          	mv	a1,a0
    4d48:	00040513          	mv	a0,s0
    4d4c:	7d5010ef          	jal	6d20 <__addsf3>
    4d50:	01c12083          	lw	ra,28(sp)
    4d54:	01812403          	lw	s0,24(sp)
    4d58:	00a4a023          	sw	a0,0(s1)
    4d5c:	0134a223          	sw	s3,4(s1)
    4d60:	0124a423          	sw	s2,8(s1)
    4d64:	00048513          	mv	a0,s1
    4d68:	01412483          	lw	s1,20(sp)
    4d6c:	01012903          	lw	s2,16(sp)
    4d70:	00c12983          	lw	s3,12(sp)
    4d74:	00812a03          	lw	s4,8(sp)
    4d78:	00412a83          	lw	s5,4(sp)
    4d7c:	00012b03          	lw	s6,0(sp)
    4d80:	02010113          	addi	sp,sp,32
    4d84:	00008067          	ret

00004d88 <mat4_mul_vec4>:
    4d88:	fd010113          	addi	sp,sp,-48
    4d8c:	01512a23          	sw	s5,20(sp)
    4d90:	00062a83          	lw	s5,0(a2)
    4d94:	02812423          	sw	s0,40(sp)
    4d98:	00058413          	mv	s0,a1
    4d9c:	0105a583          	lw	a1,16(a1)
    4da0:	02912223          	sw	s1,36(sp)
    4da4:	00050493          	mv	s1,a0
    4da8:	000a8513          	mv	a0,s5
    4dac:	02112623          	sw	ra,44(sp)
    4db0:	03212023          	sw	s2,32(sp)
    4db4:	01312e23          	sw	s3,28(sp)
    4db8:	00c62903          	lw	s2,12(a2)
    4dbc:	00862983          	lw	s3,8(a2)
    4dc0:	01412c23          	sw	s4,24(sp)
    4dc4:	01612823          	sw	s6,16(sp)
    4dc8:	00462a03          	lw	s4,4(a2)
    4dcc:	01712623          	sw	s7,12(sp)
    4dd0:	01812423          	sw	s8,8(sp)
    4dd4:	424020ef          	jal	71f8 <__mulsf3>
    4dd8:	01442583          	lw	a1,20(s0)
    4ddc:	00050b13          	mv	s6,a0
    4de0:	000a0513          	mv	a0,s4
    4de4:	414020ef          	jal	71f8 <__mulsf3>
    4de8:	00050593          	mv	a1,a0
    4dec:	000b0513          	mv	a0,s6
    4df0:	731010ef          	jal	6d20 <__addsf3>
    4df4:	01842583          	lw	a1,24(s0)
    4df8:	00050b13          	mv	s6,a0
    4dfc:	00098513          	mv	a0,s3
    4e00:	3f8020ef          	jal	71f8 <__mulsf3>
    4e04:	00050593          	mv	a1,a0
    4e08:	000b0513          	mv	a0,s6
    4e0c:	715010ef          	jal	6d20 <__addsf3>
    4e10:	01c42583          	lw	a1,28(s0)
    4e14:	00050b13          	mv	s6,a0
    4e18:	00090513          	mv	a0,s2
    4e1c:	3dc020ef          	jal	71f8 <__mulsf3>
    4e20:	00050593          	mv	a1,a0
    4e24:	000b0513          	mv	a0,s6
    4e28:	6f9010ef          	jal	6d20 <__addsf3>
    4e2c:	02042583          	lw	a1,32(s0)
    4e30:	00050b93          	mv	s7,a0
    4e34:	000a8513          	mv	a0,s5
    4e38:	3c0020ef          	jal	71f8 <__mulsf3>
    4e3c:	02442583          	lw	a1,36(s0)
    4e40:	00050b13          	mv	s6,a0
    4e44:	000a0513          	mv	a0,s4
    4e48:	3b0020ef          	jal	71f8 <__mulsf3>
    4e4c:	00050593          	mv	a1,a0
    4e50:	000b0513          	mv	a0,s6
    4e54:	6cd010ef          	jal	6d20 <__addsf3>
    4e58:	02842583          	lw	a1,40(s0)
    4e5c:	00050b13          	mv	s6,a0
    4e60:	00098513          	mv	a0,s3
    4e64:	394020ef          	jal	71f8 <__mulsf3>
    4e68:	00050593          	mv	a1,a0
    4e6c:	000b0513          	mv	a0,s6
    4e70:	6b1010ef          	jal	6d20 <__addsf3>
    4e74:	02c42583          	lw	a1,44(s0)
    4e78:	00050b13          	mv	s6,a0
    4e7c:	00090513          	mv	a0,s2
    4e80:	378020ef          	jal	71f8 <__mulsf3>
    4e84:	00050593          	mv	a1,a0
    4e88:	000b0513          	mv	a0,s6
    4e8c:	695010ef          	jal	6d20 <__addsf3>
    4e90:	03042583          	lw	a1,48(s0)
    4e94:	00050b13          	mv	s6,a0
    4e98:	000a8513          	mv	a0,s5
    4e9c:	35c020ef          	jal	71f8 <__mulsf3>
    4ea0:	03442583          	lw	a1,52(s0)
    4ea4:	00050c13          	mv	s8,a0
    4ea8:	000a0513          	mv	a0,s4
    4eac:	34c020ef          	jal	71f8 <__mulsf3>
    4eb0:	00050593          	mv	a1,a0
    4eb4:	000c0513          	mv	a0,s8
    4eb8:	669010ef          	jal	6d20 <__addsf3>
    4ebc:	03842583          	lw	a1,56(s0)
    4ec0:	00050c13          	mv	s8,a0
    4ec4:	00098513          	mv	a0,s3
    4ec8:	330020ef          	jal	71f8 <__mulsf3>
    4ecc:	00050593          	mv	a1,a0
    4ed0:	000c0513          	mv	a0,s8
    4ed4:	64d010ef          	jal	6d20 <__addsf3>
    4ed8:	03c42583          	lw	a1,60(s0)
    4edc:	00050c13          	mv	s8,a0
    4ee0:	00090513          	mv	a0,s2
    4ee4:	314020ef          	jal	71f8 <__mulsf3>
    4ee8:	00050593          	mv	a1,a0
    4eec:	000c0513          	mv	a0,s8
    4ef0:	631010ef          	jal	6d20 <__addsf3>
    4ef4:	00042583          	lw	a1,0(s0)
    4ef8:	00050793          	mv	a5,a0
    4efc:	000a8513          	mv	a0,s5
    4f00:	00078a93          	mv	s5,a5
    4f04:	2f4020ef          	jal	71f8 <__mulsf3>
    4f08:	00442583          	lw	a1,4(s0)
    4f0c:	00050793          	mv	a5,a0
    4f10:	000a0513          	mv	a0,s4
    4f14:	00078a13          	mv	s4,a5
    4f18:	2e0020ef          	jal	71f8 <__mulsf3>
    4f1c:	00050593          	mv	a1,a0
    4f20:	000a0513          	mv	a0,s4
    4f24:	5fd010ef          	jal	6d20 <__addsf3>
    4f28:	00842583          	lw	a1,8(s0)
    4f2c:	00050793          	mv	a5,a0
    4f30:	00098513          	mv	a0,s3
    4f34:	00078993          	mv	s3,a5
    4f38:	2c0020ef          	jal	71f8 <__mulsf3>
    4f3c:	00050593          	mv	a1,a0
    4f40:	00098513          	mv	a0,s3
    4f44:	5dd010ef          	jal	6d20 <__addsf3>
    4f48:	00c42583          	lw	a1,12(s0)
    4f4c:	00050793          	mv	a5,a0
    4f50:	00090513          	mv	a0,s2
    4f54:	00078413          	mv	s0,a5
    4f58:	2a0020ef          	jal	71f8 <__mulsf3>
    4f5c:	00050593          	mv	a1,a0
    4f60:	00040513          	mv	a0,s0
    4f64:	5bd010ef          	jal	6d20 <__addsf3>
    4f68:	02c12083          	lw	ra,44(sp)
    4f6c:	02812403          	lw	s0,40(sp)
    4f70:	00a4a023          	sw	a0,0(s1)
    4f74:	0174a223          	sw	s7,4(s1)
    4f78:	0164a423          	sw	s6,8(s1)
    4f7c:	0154a623          	sw	s5,12(s1)
    4f80:	02012903          	lw	s2,32(sp)
    4f84:	01c12983          	lw	s3,28(sp)
    4f88:	01812a03          	lw	s4,24(sp)
    4f8c:	01412a83          	lw	s5,20(sp)
    4f90:	01012b03          	lw	s6,16(sp)
    4f94:	00c12b83          	lw	s7,12(sp)
    4f98:	00812c03          	lw	s8,8(sp)
    4f9c:	00048513          	mv	a0,s1
    4fa0:	02412483          	lw	s1,36(sp)
    4fa4:	03010113          	addi	sp,sp,48
    4fa8:	00008067          	ret

00004fac <perspective_matrix>:
    4fac:	0009e7b7          	lui	a5,0x9e
    4fb0:	fe010113          	addi	sp,sp,-32
    4fb4:	8fc7a583          	lw	a1,-1796(a5) # 9d8fc <CSWTCH.6+0x528>
    4fb8:	000077b7          	lui	a5,0x7
    4fbc:	00812c23          	sw	s0,24(sp)
    4fc0:	00050413          	mv	s0,a0
    4fc4:	3a07a503          	lw	a0,928(a5) # 73a0 <fov>
    4fc8:	00112e23          	sw	ra,28(sp)
    4fcc:	00912a23          	sw	s1,20(sp)
    4fd0:	01212823          	sw	s2,16(sp)
    4fd4:	01312623          	sw	s3,12(sp)
    4fd8:	01412423          	sw	s4,8(sp)
    4fdc:	01512223          	sw	s5,4(sp)
    4fe0:	00042223          	sw	zero,4(s0)
    4fe4:	00042423          	sw	zero,8(s0)
    4fe8:	00042623          	sw	zero,12(s0)
    4fec:	00042823          	sw	zero,16(s0)
    4ff0:	00042a23          	sw	zero,20(s0)
    4ff4:	00042c23          	sw	zero,24(s0)
    4ff8:	00042e23          	sw	zero,28(s0)
    4ffc:	02042023          	sw	zero,32(s0)
    5000:	02042223          	sw	zero,36(s0)
    5004:	02042423          	sw	zero,40(s0)
    5008:	02042623          	sw	zero,44(s0)
    500c:	02042823          	sw	zero,48(s0)
    5010:	02042a23          	sw	zero,52(s0)
    5014:	02042c23          	sw	zero,56(s0)
    5018:	02042e23          	sw	zero,60(s0)
    501c:	1dc020ef          	jal	71f8 <__mulsf3>
    5020:	0009e7b7          	lui	a5,0x9e
    5024:	95c7a583          	lw	a1,-1700(a5) # 9d95c <CSWTCH.6+0x588>
    5028:	0009e9b7          	lui	s3,0x9e
    502c:	1cc020ef          	jal	71f8 <__mulsf3>
    5030:	2f9000ef          	jal	5b28 <tan>
    5034:	000077b7          	lui	a5,0x7
    5038:	3947aa83          	lw	s5,916(a5) # 7394 <z_far>
    503c:	000077b7          	lui	a5,0x7
    5040:	3987aa03          	lw	s4,920(a5) # 7398 <z_near>
    5044:	00050913          	mv	s2,a0
    5048:	000a8513          	mv	a0,s5
    504c:	000a0593          	mv	a1,s4
    5050:	4c9010ef          	jal	6d18 <__subsf3>
    5054:	000077b7          	lui	a5,0x7
    5058:	39c7a583          	lw	a1,924(a5) # 739c <aspect_ratio>
    505c:	00050493          	mv	s1,a0
    5060:	00090513          	mv	a0,s2
    5064:	194020ef          	jal	71f8 <__mulsf3>
    5068:	00050593          	mv	a1,a0
    506c:	9089a503          	lw	a0,-1784(s3) # 9d908 <CSWTCH.6+0x534>
    5070:	675010ef          	jal	6ee4 <__divsf3>
    5074:	00050793          	mv	a5,a0
    5078:	9089a503          	lw	a0,-1784(s3)
    507c:	00f42023          	sw	a5,0(s0)
    5080:	00090593          	mv	a1,s2
    5084:	661010ef          	jal	6ee4 <__divsf3>
    5088:	00a42a23          	sw	a0,20(s0)
    508c:	000a0593          	mv	a1,s4
    5090:	000a8513          	mv	a0,s5
    5094:	48d010ef          	jal	6d20 <__addsf3>
    5098:	80000937          	lui	s2,0x80000
    509c:	00048593          	mv	a1,s1
    50a0:	00a94533          	xor	a0,s2,a0
    50a4:	641010ef          	jal	6ee4 <__divsf3>
    50a8:	02a42423          	sw	a0,40(s0)
    50ac:	000a8593          	mv	a1,s5
    50b0:	000a8513          	mv	a0,s5
    50b4:	46d010ef          	jal	6d20 <__addsf3>
    50b8:	000a0593          	mv	a1,s4
    50bc:	13c020ef          	jal	71f8 <__mulsf3>
    50c0:	00048593          	mv	a1,s1
    50c4:	00a94533          	xor	a0,s2,a0
    50c8:	61d010ef          	jal	6ee4 <__divsf3>
    50cc:	9089a783          	lw	a5,-1784(s3)
    50d0:	02a42623          	sw	a0,44(s0)
    50d4:	01c12083          	lw	ra,28(sp)
    50d8:	00040513          	mv	a0,s0
    50dc:	02f42c23          	sw	a5,56(s0)
    50e0:	01812403          	lw	s0,24(sp)
    50e4:	01412483          	lw	s1,20(sp)
    50e8:	01012903          	lw	s2,16(sp)
    50ec:	00c12983          	lw	s3,12(sp)
    50f0:	00812a03          	lw	s4,8(sp)
    50f4:	00412a83          	lw	s5,4(sp)
    50f8:	02010113          	addi	sp,sp,32
    50fc:	00008067          	ret

00005100 <quicksort>:
    5100:	00100793          	li	a5,1
    5104:	2cb7f463          	bgeu	a5,a1,53cc <quicksort+0x2cc>
    5108:	fb010113          	addi	sp,sp,-80
    510c:	fff60793          	addi	a5,a2,-1
    5110:	03512a23          	sw	s5,52(sp)
    5114:	ffc67a93          	andi	s5,a2,-4
    5118:	00f12223          	sw	a5,4(sp)
    511c:	415787b3          	sub	a5,a5,s5
    5120:	00f12423          	sw	a5,8(sp)
    5124:	fff78793          	addi	a5,a5,-1
    5128:	04812423          	sw	s0,72(sp)
    512c:	04912223          	sw	s1,68(sp)
    5130:	05212023          	sw	s2,64(sp)
    5134:	03a12023          	sw	s10,32(sp)
    5138:	04112623          	sw	ra,76(sp)
    513c:	03312e23          	sw	s3,60(sp)
    5140:	03412c23          	sw	s4,56(sp)
    5144:	03612823          	sw	s6,48(sp)
    5148:	03712623          	sw	s7,44(sp)
    514c:	03812423          	sw	s8,40(sp)
    5150:	03912223          	sw	s9,36(sp)
    5154:	01b12e23          	sw	s11,28(sp)
    5158:	00058493          	mv	s1,a1
    515c:	00050413          	mv	s0,a0
    5160:	00060d13          	mv	s10,a2
    5164:	00068913          	mv	s2,a3
    5168:	00f12623          	sw	a5,12(sp)
    516c:	fff48493          	addi	s1,s1,-1
    5170:	029d0a33          	mul	s4,s10,s1
    5174:	00000b93          	li	s7,0
    5178:	00000993          	li	s3,0
    517c:	00000c13          	li	s8,0
    5180:	01440cb3          	add	s9,s0,s4
    5184:	0100006f          	j	5194 <quicksort+0x94>
    5188:	001c0c13          	addi	s8,s8,1
    518c:	01ab8bb3          	add	s7,s7,s10
    5190:	0d848c63          	beq	s1,s8,5268 <quicksort+0x168>
    5194:	01740b33          	add	s6,s0,s7
    5198:	000c8593          	mv	a1,s9
    519c:	000b0513          	mv	a0,s6
    51a0:	000b0d93          	mv	s11,s6
    51a4:	000900e7          	jalr	s2 # 80000000 <_stack_end+0x7fe62564>
    51a8:	fe0550e3          	bgez	a0,5188 <quicksort+0x88>
    51ac:	0a0d0663          	beqz	s10,5258 <quicksort+0x158>
    51b0:	033d0333          	mul	t1,s10,s3
    51b4:	00412703          	lw	a4,4(sp)
    51b8:	00400693          	li	a3,4
    51bc:	006407b3          	add	a5,s0,t1
    51c0:	1ce6f063          	bgeu	a3,a4,5380 <quicksort+0x280>
    51c4:	004b8513          	addi	a0,s7,4
    51c8:	00430893          	addi	a7,t1,4
    51cc:	00a32533          	slt	a0,t1,a0
    51d0:	011ba8b3          	slt	a7,s7,a7
    51d4:	00153513          	seqz	a0,a0
    51d8:	0018b893          	seqz	a7,a7
    51dc:	01156533          	or	a0,a0,a7
    51e0:	1a050063          	beqz	a0,5380 <quicksort+0x280>
    51e4:	0167e533          	or	a0,a5,s6
    51e8:	00357513          	andi	a0,a0,3
    51ec:	18051a63          	bnez	a0,5380 <quicksort+0x280>
    51f0:	01578333          	add	t1,a5,s5
    51f4:	000b2883          	lw	a7,0(s6)
    51f8:	0007a503          	lw	a0,0(a5)
    51fc:	00478793          	addi	a5,a5,4
    5200:	004b0b13          	addi	s6,s6,4
    5204:	ff17ae23          	sw	a7,-4(a5)
    5208:	feab2e23          	sw	a0,-4(s6)
    520c:	fef314e3          	bne	t1,a5,51f4 <quicksort+0xf4>
    5210:	015d8db3          	add	s11,s11,s5
    5214:	055d0263          	beq	s10,s5,5258 <quicksort+0x158>
    5218:	000dc703          	lbu	a4,0(s11)
    521c:	00034783          	lbu	a5,0(t1)
    5220:	00e30023          	sb	a4,0(t1)
    5224:	00fd8023          	sb	a5,0(s11)
    5228:	00812783          	lw	a5,8(sp)
    522c:	02078663          	beqz	a5,5258 <quicksort+0x158>
    5230:	001dc703          	lbu	a4,1(s11)
    5234:	00134783          	lbu	a5,1(t1)
    5238:	00e300a3          	sb	a4,1(t1)
    523c:	00fd80a3          	sb	a5,1(s11)
    5240:	00c12783          	lw	a5,12(sp)
    5244:	00078a63          	beqz	a5,5258 <quicksort+0x158>
    5248:	002dc703          	lbu	a4,2(s11)
    524c:	00234783          	lbu	a5,2(t1)
    5250:	00e30123          	sb	a4,2(t1)
    5254:	00fd8123          	sb	a5,2(s11)
    5258:	00198993          	addi	s3,s3,1
    525c:	001c0c13          	addi	s8,s8,1
    5260:	01ab8bb3          	add	s7,s7,s10
    5264:	f38498e3          	bne	s1,s8,5194 <quicksort+0x94>
    5268:	033d06b3          	mul	a3,s10,s3
    526c:	00d407b3          	add	a5,s0,a3
    5270:	0a0d0463          	beqz	s10,5318 <quicksort+0x218>
    5274:	00412703          	lw	a4,4(sp)
    5278:	00400613          	li	a2,4
    527c:	12e67663          	bgeu	a2,a4,53a8 <quicksort+0x2a8>
    5280:	00468713          	addi	a4,a3,4
    5284:	004a0513          	addi	a0,s4,4
    5288:	00ea2733          	slt	a4,s4,a4
    528c:	00a6a6b3          	slt	a3,a3,a0
    5290:	00173713          	seqz	a4,a4
    5294:	0016b693          	seqz	a3,a3
    5298:	00d76733          	or	a4,a4,a3
    529c:	10070663          	beqz	a4,53a8 <quicksort+0x2a8>
    52a0:	0197e733          	or	a4,a5,s9
    52a4:	00377713          	andi	a4,a4,3
    52a8:	10071063          	bnez	a4,53a8 <quicksort+0x2a8>
    52ac:	000c8713          	mv	a4,s9
    52b0:	01578833          	add	a6,a5,s5
    52b4:	00072503          	lw	a0,0(a4) # 80000000 <_stack_end+0x7fe62564>
    52b8:	0007a683          	lw	a3,0(a5)
    52bc:	00478793          	addi	a5,a5,4
    52c0:	00470713          	addi	a4,a4,4
    52c4:	fea7ae23          	sw	a0,-4(a5)
    52c8:	fed72e23          	sw	a3,-4(a4)
    52cc:	fef814e3          	bne	a6,a5,52b4 <quicksort+0x1b4>
    52d0:	015c85b3          	add	a1,s9,s5
    52d4:	055d0263          	beq	s10,s5,5318 <quicksort+0x218>
    52d8:	0005c703          	lbu	a4,0(a1)
    52dc:	00084783          	lbu	a5,0(a6)
    52e0:	00e80023          	sb	a4,0(a6)
    52e4:	00f58023          	sb	a5,0(a1)
    52e8:	00812783          	lw	a5,8(sp)
    52ec:	02078663          	beqz	a5,5318 <quicksort+0x218>
    52f0:	0015c703          	lbu	a4,1(a1)
    52f4:	00184783          	lbu	a5,1(a6)
    52f8:	00e800a3          	sb	a4,1(a6)
    52fc:	00f580a3          	sb	a5,1(a1)
    5300:	00c12783          	lw	a5,12(sp)
    5304:	00078a63          	beqz	a5,5318 <quicksort+0x218>
    5308:	0025c703          	lbu	a4,2(a1)
    530c:	00284783          	lbu	a5,2(a6)
    5310:	00e80123          	sb	a4,2(a6)
    5314:	00f58123          	sb	a5,2(a1)
    5318:	00040513          	mv	a0,s0
    531c:	00090693          	mv	a3,s2
    5320:	000d0613          	mv	a2,s10
    5324:	00098593          	mv	a1,s3
    5328:	dd9ff0ef          	jal	5100 <quicksort>
    532c:	00198793          	addi	a5,s3,1
    5330:	03a787b3          	mul	a5,a5,s10
    5334:	413484b3          	sub	s1,s1,s3
    5338:	00f40433          	add	s0,s0,a5
    533c:	00100793          	li	a5,1
    5340:	e297e6e3          	bltu	a5,s1,516c <quicksort+0x6c>
    5344:	04c12083          	lw	ra,76(sp)
    5348:	04812403          	lw	s0,72(sp)
    534c:	04412483          	lw	s1,68(sp)
    5350:	04012903          	lw	s2,64(sp)
    5354:	03c12983          	lw	s3,60(sp)
    5358:	03812a03          	lw	s4,56(sp)
    535c:	03412a83          	lw	s5,52(sp)
    5360:	03012b03          	lw	s6,48(sp)
    5364:	02c12b83          	lw	s7,44(sp)
    5368:	02812c03          	lw	s8,40(sp)
    536c:	02412c83          	lw	s9,36(sp)
    5370:	02012d03          	lw	s10,32(sp)
    5374:	01c12d83          	lw	s11,28(sp)
    5378:	05010113          	addi	sp,sp,80
    537c:	00008067          	ret
    5380:	01a788b3          	add	a7,a5,s10
    5384:	000dc503          	lbu	a0,0(s11)
    5388:	0007c703          	lbu	a4,0(a5)
    538c:	001d8d93          	addi	s11,s11,1
    5390:	00178793          	addi	a5,a5,1
    5394:	fea78fa3          	sb	a0,-1(a5)
    5398:	feed8fa3          	sb	a4,-1(s11)
    539c:	fef894e3          	bne	a7,a5,5384 <quicksort+0x284>
    53a0:	00198993          	addi	s3,s3,1
    53a4:	eb9ff06f          	j	525c <quicksort+0x15c>
    53a8:	01ac8533          	add	a0,s9,s10
    53ac:	000cc683          	lbu	a3,0(s9)
    53b0:	0007c703          	lbu	a4,0(a5)
    53b4:	001c8c93          	addi	s9,s9,1
    53b8:	00178793          	addi	a5,a5,1
    53bc:	fed78fa3          	sb	a3,-1(a5)
    53c0:	feec8fa3          	sb	a4,-1(s9)
    53c4:	feac94e3          	bne	s9,a0,53ac <quicksort+0x2ac>
    53c8:	f51ff06f          	j	5318 <quicksort+0x218>
    53cc:	00008067          	ret

000053d0 <fmodf>:
    53d0:	ff010113          	addi	sp,sp,-16
    53d4:	00812423          	sw	s0,8(sp)
    53d8:	00058413          	mv	s0,a1
    53dc:	00912223          	sw	s1,4(sp)
    53e0:	00000593          	li	a1,0
    53e4:	00050493          	mv	s1,a0
    53e8:	00040513          	mv	a0,s0
    53ec:	00112623          	sw	ra,12(sp)
    53f0:	461010ef          	jal	7050 <__eqsf2>
    53f4:	08050663          	beqz	a0,5480 <fmodf+0xb0>
    53f8:	00040593          	mv	a1,s0
    53fc:	00048513          	mv	a0,s1
    5400:	2e5010ef          	jal	6ee4 <__divsf3>
    5404:	475010ef          	jal	7078 <__fixsfsi>
    5408:	4c1010ef          	jal	70c8 <__floatsisf>
    540c:	00040593          	mv	a1,s0
    5410:	5e9010ef          	jal	71f8 <__mulsf3>
    5414:	00050593          	mv	a1,a0
    5418:	00048513          	mv	a0,s1
    541c:	0fd010ef          	jal	6d18 <__subsf3>
    5420:	00000593          	li	a1,0
    5424:	00050493          	mv	s1,a0
    5428:	589010ef          	jal	71b0 <__ltsf2>
    542c:	00054e63          	bltz	a0,5448 <fmodf+0x78>
    5430:	00c12083          	lw	ra,12(sp)
    5434:	00812403          	lw	s0,8(sp)
    5438:	00048513          	mv	a0,s1
    543c:	00412483          	lw	s1,4(sp)
    5440:	01010113          	addi	sp,sp,16
    5444:	00008067          	ret
    5448:	00000593          	li	a1,0
    544c:	00040513          	mv	a0,s0
    5450:	521010ef          	jal	7170 <__gtsf2>
    5454:	04a05a63          	blez	a0,54a8 <fmodf+0xd8>
    5458:	00048513          	mv	a0,s1
    545c:	00040593          	mv	a1,s0
    5460:	0c1010ef          	jal	6d20 <__addsf3>
    5464:	00050493          	mv	s1,a0
    5468:	00c12083          	lw	ra,12(sp)
    546c:	00812403          	lw	s0,8(sp)
    5470:	00048513          	mv	a0,s1
    5474:	00412483          	lw	s1,4(sp)
    5478:	01010113          	addi	sp,sp,16
    547c:	00008067          	ret
    5480:	00000593          	li	a1,0
    5484:	00058513          	mv	a0,a1
    5488:	25d010ef          	jal	6ee4 <__divsf3>
    548c:	00c12083          	lw	ra,12(sp)
    5490:	00812403          	lw	s0,8(sp)
    5494:	00050493          	mv	s1,a0
    5498:	00048513          	mv	a0,s1
    549c:	00412483          	lw	s1,4(sp)
    54a0:	01010113          	addi	sp,sp,16
    54a4:	00008067          	ret
    54a8:	800007b7          	lui	a5,0x80000
    54ac:	0087c433          	xor	s0,a5,s0
    54b0:	00048513          	mv	a0,s1
    54b4:	00040593          	mv	a1,s0
    54b8:	069010ef          	jal	6d20 <__addsf3>
    54bc:	00050493          	mv	s1,a0
    54c0:	fa9ff06f          	j	5468 <fmodf+0x98>

000054c4 <fabsf>:
    54c4:	ff010113          	addi	sp,sp,-16
    54c8:	00000593          	li	a1,0
    54cc:	00812423          	sw	s0,8(sp)
    54d0:	00112623          	sw	ra,12(sp)
    54d4:	00050413          	mv	s0,a0
    54d8:	4d9010ef          	jal	71b0 <__ltsf2>
    54dc:	00055663          	bgez	a0,54e8 <fabsf+0x24>
    54e0:	800007b7          	lui	a5,0x80000
    54e4:	0087c433          	xor	s0,a5,s0
    54e8:	00c12083          	lw	ra,12(sp)
    54ec:	00040513          	mv	a0,s0
    54f0:	00812403          	lw	s0,8(sp)
    54f4:	01010113          	addi	sp,sp,16
    54f8:	00008067          	ret

000054fc <fmin>:
    54fc:	ff010113          	addi	sp,sp,-16
    5500:	00812423          	sw	s0,8(sp)
    5504:	00912223          	sw	s1,4(sp)
    5508:	00112623          	sw	ra,12(sp)
    550c:	00050493          	mv	s1,a0
    5510:	00058413          	mv	s0,a1
    5514:	49d010ef          	jal	71b0 <__ltsf2>
    5518:	00055463          	bgez	a0,5520 <fmin+0x24>
    551c:	00048413          	mv	s0,s1
    5520:	00c12083          	lw	ra,12(sp)
    5524:	00040513          	mv	a0,s0
    5528:	00812403          	lw	s0,8(sp)
    552c:	00412483          	lw	s1,4(sp)
    5530:	01010113          	addi	sp,sp,16
    5534:	00008067          	ret

00005538 <fmax>:
    5538:	ff010113          	addi	sp,sp,-16
    553c:	00812423          	sw	s0,8(sp)
    5540:	00912223          	sw	s1,4(sp)
    5544:	00112623          	sw	ra,12(sp)
    5548:	00050493          	mv	s1,a0
    554c:	00058413          	mv	s0,a1
    5550:	421010ef          	jal	7170 <__gtsf2>
    5554:	00a05463          	blez	a0,555c <fmax+0x24>
    5558:	00048413          	mv	s0,s1
    555c:	00c12083          	lw	ra,12(sp)
    5560:	00040513          	mv	a0,s0
    5564:	00812403          	lw	s0,8(sp)
    5568:	00412483          	lw	s1,4(sp)
    556c:	01010113          	addi	sp,sp,16
    5570:	00008067          	ret

00005574 <floor>:
    5574:	ff010113          	addi	sp,sp,-16
    5578:	00112623          	sw	ra,12(sp)
    557c:	00812423          	sw	s0,8(sp)
    5580:	00912223          	sw	s1,4(sp)
    5584:	01212023          	sw	s2,0(sp)
    5588:	00050493          	mv	s1,a0
    558c:	2ed010ef          	jal	7078 <__fixsfsi>
    5590:	00050913          	mv	s2,a0
    5594:	335010ef          	jal	70c8 <__floatsisf>
    5598:	00050413          	mv	s0,a0
    559c:	00000593          	li	a1,0
    55a0:	00048513          	mv	a0,s1
    55a4:	40d010ef          	jal	71b0 <__ltsf2>
    55a8:	02054063          	bltz	a0,55c8 <floor+0x54>
    55ac:	00c12083          	lw	ra,12(sp)
    55b0:	00040513          	mv	a0,s0
    55b4:	00812403          	lw	s0,8(sp)
    55b8:	00412483          	lw	s1,4(sp)
    55bc:	00012903          	lw	s2,0(sp)
    55c0:	01010113          	addi	sp,sp,16
    55c4:	00008067          	ret
    55c8:	00040593          	mv	a1,s0
    55cc:	00048513          	mv	a0,s1
    55d0:	281010ef          	jal	7050 <__eqsf2>
    55d4:	fc050ce3          	beqz	a0,55ac <floor+0x38>
    55d8:	fff90513          	addi	a0,s2,-1
    55dc:	2ed010ef          	jal	70c8 <__floatsisf>
    55e0:	00050413          	mv	s0,a0
    55e4:	00c12083          	lw	ra,12(sp)
    55e8:	00040513          	mv	a0,s0
    55ec:	00812403          	lw	s0,8(sp)
    55f0:	00412483          	lw	s1,4(sp)
    55f4:	00012903          	lw	s2,0(sp)
    55f8:	01010113          	addi	sp,sp,16
    55fc:	00008067          	ret

00005600 <ceil>:
    5600:	ff010113          	addi	sp,sp,-16
    5604:	00112623          	sw	ra,12(sp)
    5608:	00812423          	sw	s0,8(sp)
    560c:	00912223          	sw	s1,4(sp)
    5610:	01212023          	sw	s2,0(sp)
    5614:	00050493          	mv	s1,a0
    5618:	261010ef          	jal	7078 <__fixsfsi>
    561c:	00050913          	mv	s2,a0
    5620:	2a9010ef          	jal	70c8 <__floatsisf>
    5624:	00050413          	mv	s0,a0
    5628:	00000593          	li	a1,0
    562c:	00048513          	mv	a0,s1
    5630:	341010ef          	jal	7170 <__gtsf2>
    5634:	02a05063          	blez	a0,5654 <ceil+0x54>
    5638:	00040593          	mv	a1,s0
    563c:	00048513          	mv	a0,s1
    5640:	211010ef          	jal	7050 <__eqsf2>
    5644:	00050863          	beqz	a0,5654 <ceil+0x54>
    5648:	00190513          	addi	a0,s2,1
    564c:	27d010ef          	jal	70c8 <__floatsisf>
    5650:	00050413          	mv	s0,a0
    5654:	00c12083          	lw	ra,12(sp)
    5658:	00040513          	mv	a0,s0
    565c:	00812403          	lw	s0,8(sp)
    5660:	00412483          	lw	s1,4(sp)
    5664:	00012903          	lw	s2,0(sp)
    5668:	01010113          	addi	sp,sp,16
    566c:	00008067          	ret

00005670 <sqrtf>:
    5670:	fe010113          	addi	sp,sp,-32
    5674:	00000593          	li	a1,0
    5678:	00812c23          	sw	s0,24(sp)
    567c:	01212823          	sw	s2,16(sp)
    5680:	00112e23          	sw	ra,28(sp)
    5684:	00050913          	mv	s2,a0
    5688:	329010ef          	jal	71b0 <__ltsf2>
    568c:	00000413          	li	s0,0
    5690:	08054463          	bltz	a0,5718 <sqrtf+0xa8>
    5694:	0009e7b7          	lui	a5,0x9e
    5698:	01412423          	sw	s4,8(sp)
    569c:	8fc7aa03          	lw	s4,-1796(a5) # 9d8fc <CSWTCH.6+0x528>
    56a0:	0009e7b7          	lui	a5,0x9e
    56a4:	01312623          	sw	s3,12(sp)
    56a8:	9607a983          	lw	s3,-1696(a5) # 9d960 <CSWTCH.6+0x58c>
    56ac:	01512223          	sw	s5,4(sp)
    56b0:	00912a23          	sw	s1,20(sp)
    56b4:	00090413          	mv	s0,s2
    56b8:	80000ab7          	lui	s5,0x80000
    56bc:	00040593          	mv	a1,s0
    56c0:	00090513          	mv	a0,s2
    56c4:	021010ef          	jal	6ee4 <__divsf3>
    56c8:	00040593          	mv	a1,s0
    56cc:	654010ef          	jal	6d20 <__addsf3>
    56d0:	000a0593          	mv	a1,s4
    56d4:	325010ef          	jal	71f8 <__mulsf3>
    56d8:	00040593          	mv	a1,s0
    56dc:	00050413          	mv	s0,a0
    56e0:	638010ef          	jal	6d18 <__subsf3>
    56e4:	00000593          	li	a1,0
    56e8:	00050493          	mv	s1,a0
    56ec:	2c5010ef          	jal	71b0 <__ltsf2>
    56f0:	00098593          	mv	a1,s3
    56f4:	00055463          	bgez	a0,56fc <sqrtf+0x8c>
    56f8:	009ac4b3          	xor	s1,s5,s1
    56fc:	00048513          	mv	a0,s1
    5700:	271010ef          	jal	7170 <__gtsf2>
    5704:	faa04ce3          	bgtz	a0,56bc <sqrtf+0x4c>
    5708:	01412483          	lw	s1,20(sp)
    570c:	00c12983          	lw	s3,12(sp)
    5710:	00812a03          	lw	s4,8(sp)
    5714:	00412a83          	lw	s5,4(sp)
    5718:	01c12083          	lw	ra,28(sp)
    571c:	00040513          	mv	a0,s0
    5720:	01812403          	lw	s0,24(sp)
    5724:	01012903          	lw	s2,16(sp)
    5728:	02010113          	addi	sp,sp,32
    572c:	00008067          	ret

00005730 <cos>:
    5730:	fe010113          	addi	sp,sp,-32
    5734:	00912a23          	sw	s1,20(sp)
    5738:	0009e4b7          	lui	s1,0x9e
    573c:	9644a583          	lw	a1,-1692(s1) # 9d964 <CSWTCH.6+0x590>
    5740:	00112e23          	sw	ra,28(sp)
    5744:	00812c23          	sw	s0,24(sp)
    5748:	01212823          	sw	s2,16(sp)
    574c:	00050413          	mv	s0,a0
    5750:	01312623          	sw	s3,12(sp)
    5754:	790010ef          	jal	6ee4 <__divsf3>
    5758:	121010ef          	jal	7078 <__fixsfsi>
    575c:	16d010ef          	jal	70c8 <__floatsisf>
    5760:	9644a583          	lw	a1,-1692(s1)
    5764:	295010ef          	jal	71f8 <__mulsf3>
    5768:	00050593          	mv	a1,a0
    576c:	00040513          	mv	a0,s0
    5770:	5a8010ef          	jal	6d18 <__subsf3>
    5774:	00000593          	li	a1,0
    5778:	00050413          	mv	s0,a0
    577c:	235010ef          	jal	71b0 <__ltsf2>
    5780:	00055a63          	bgez	a0,5794 <cos+0x64>
    5784:	9644a583          	lw	a1,-1692(s1)
    5788:	00040513          	mv	a0,s0
    578c:	594010ef          	jal	6d20 <__addsf3>
    5790:	00050413          	mv	s0,a0
    5794:	00040593          	mv	a1,s0
    5798:	00040513          	mv	a0,s0
    579c:	25d010ef          	jal	71f8 <__mulsf3>
    57a0:	0009e7b7          	lui	a5,0x9e
    57a4:	8fc7a583          	lw	a1,-1796(a5) # 9d8fc <CSWTCH.6+0x528>
    57a8:	00050413          	mv	s0,a0
    57ac:	24d010ef          	jal	71f8 <__mulsf3>
    57b0:	0009e7b7          	lui	a5,0x9e
    57b4:	9687a583          	lw	a1,-1688(a5) # 9d968 <CSWTCH.6+0x594>
    57b8:	00050993          	mv	s3,a0
    57bc:	00040513          	mv	a0,s0
    57c0:	724010ef          	jal	6ee4 <__divsf3>
    57c4:	00098593          	mv	a1,s3
    57c8:	231010ef          	jal	71f8 <__mulsf3>
    57cc:	0009e7b7          	lui	a5,0x9e
    57d0:	92c7a583          	lw	a1,-1748(a5) # 9d92c <CSWTCH.6+0x558>
    57d4:	00050913          	mv	s2,a0
    57d8:	00040513          	mv	a0,s0
    57dc:	708010ef          	jal	6ee4 <__divsf3>
    57e0:	00090593          	mv	a1,s2
    57e4:	215010ef          	jal	71f8 <__mulsf3>
    57e8:	0009e7b7          	lui	a5,0x9e
    57ec:	00050493          	mv	s1,a0
    57f0:	9087a503          	lw	a0,-1784(a5) # 9d908 <CSWTCH.6+0x534>
    57f4:	00098593          	mv	a1,s3
    57f8:	520010ef          	jal	6d18 <__subsf3>
    57fc:	00090593          	mv	a1,s2
    5800:	520010ef          	jal	6d20 <__addsf3>
    5804:	00048593          	mv	a1,s1
    5808:	510010ef          	jal	6d18 <__subsf3>
    580c:	0009e7b7          	lui	a5,0x9e
    5810:	96c7a583          	lw	a1,-1684(a5) # 9d96c <CSWTCH.6+0x598>
    5814:	00050993          	mv	s3,a0
    5818:	00040513          	mv	a0,s0
    581c:	6c8010ef          	jal	6ee4 <__divsf3>
    5820:	00048593          	mv	a1,s1
    5824:	1d5010ef          	jal	71f8 <__mulsf3>
    5828:	0009e7b7          	lui	a5,0x9e
    582c:	9707a583          	lw	a1,-1680(a5) # 9d970 <CSWTCH.6+0x59c>
    5830:	00050913          	mv	s2,a0
    5834:	00040513          	mv	a0,s0
    5838:	6ac010ef          	jal	6ee4 <__divsf3>
    583c:	00090593          	mv	a1,s2
    5840:	1b9010ef          	jal	71f8 <__mulsf3>
    5844:	00050493          	mv	s1,a0
    5848:	00090593          	mv	a1,s2
    584c:	00098513          	mv	a0,s3
    5850:	4d0010ef          	jal	6d20 <__addsf3>
    5854:	00048593          	mv	a1,s1
    5858:	4c0010ef          	jal	6d18 <__subsf3>
    585c:	0009e7b7          	lui	a5,0x9e
    5860:	9747a583          	lw	a1,-1676(a5) # 9d974 <CSWTCH.6+0x5a0>
    5864:	00050993          	mv	s3,a0
    5868:	00040513          	mv	a0,s0
    586c:	678010ef          	jal	6ee4 <__divsf3>
    5870:	00048593          	mv	a1,s1
    5874:	185010ef          	jal	71f8 <__mulsf3>
    5878:	0009e7b7          	lui	a5,0x9e
    587c:	9787a583          	lw	a1,-1672(a5) # 9d978 <CSWTCH.6+0x5a4>
    5880:	00050913          	mv	s2,a0
    5884:	00040513          	mv	a0,s0
    5888:	65c010ef          	jal	6ee4 <__divsf3>
    588c:	00090593          	mv	a1,s2
    5890:	169010ef          	jal	71f8 <__mulsf3>
    5894:	00050493          	mv	s1,a0
    5898:	00090593          	mv	a1,s2
    589c:	00098513          	mv	a0,s3
    58a0:	480010ef          	jal	6d20 <__addsf3>
    58a4:	00048593          	mv	a1,s1
    58a8:	470010ef          	jal	6d18 <__subsf3>
    58ac:	0009e7b7          	lui	a5,0x9e
    58b0:	9587a583          	lw	a1,-1704(a5) # 9d958 <CSWTCH.6+0x584>
    58b4:	00050913          	mv	s2,a0
    58b8:	00040513          	mv	a0,s0
    58bc:	628010ef          	jal	6ee4 <__divsf3>
    58c0:	00048593          	mv	a1,s1
    58c4:	135010ef          	jal	71f8 <__mulsf3>
    58c8:	00050493          	mv	s1,a0
    58cc:	00050593          	mv	a1,a0
    58d0:	00090513          	mv	a0,s2
    58d4:	44c010ef          	jal	6d20 <__addsf3>
    58d8:	0009e737          	lui	a4,0x9e
    58dc:	97c72583          	lw	a1,-1668(a4) # 9d97c <CSWTCH.6+0x5a8>
    58e0:	00050793          	mv	a5,a0
    58e4:	00040513          	mv	a0,s0
    58e8:	00078413          	mv	s0,a5
    58ec:	5f8010ef          	jal	6ee4 <__divsf3>
    58f0:	00048593          	mv	a1,s1
    58f4:	105010ef          	jal	71f8 <__mulsf3>
    58f8:	00050593          	mv	a1,a0
    58fc:	00040513          	mv	a0,s0
    5900:	418010ef          	jal	6d18 <__subsf3>
    5904:	01c12083          	lw	ra,28(sp)
    5908:	01812403          	lw	s0,24(sp)
    590c:	01412483          	lw	s1,20(sp)
    5910:	01012903          	lw	s2,16(sp)
    5914:	00c12983          	lw	s3,12(sp)
    5918:	02010113          	addi	sp,sp,32
    591c:	00008067          	ret

00005920 <sin>:
    5920:	fe010113          	addi	sp,sp,-32
    5924:	01212823          	sw	s2,16(sp)
    5928:	0009e937          	lui	s2,0x9e
    592c:	96492583          	lw	a1,-1692(s2) # 9d964 <CSWTCH.6+0x590>
    5930:	00112e23          	sw	ra,28(sp)
    5934:	00812c23          	sw	s0,24(sp)
    5938:	00912a23          	sw	s1,20(sp)
    593c:	01312623          	sw	s3,12(sp)
    5940:	00050413          	mv	s0,a0
    5944:	5a0010ef          	jal	6ee4 <__divsf3>
    5948:	730010ef          	jal	7078 <__fixsfsi>
    594c:	77c010ef          	jal	70c8 <__floatsisf>
    5950:	96492583          	lw	a1,-1692(s2)
    5954:	0a5010ef          	jal	71f8 <__mulsf3>
    5958:	00050593          	mv	a1,a0
    595c:	00040513          	mv	a0,s0
    5960:	3b8010ef          	jal	6d18 <__subsf3>
    5964:	00000593          	li	a1,0
    5968:	00050493          	mv	s1,a0
    596c:	045010ef          	jal	71b0 <__ltsf2>
    5970:	00055a63          	bgez	a0,5984 <sin+0x64>
    5974:	96492583          	lw	a1,-1692(s2)
    5978:	00048513          	mv	a0,s1
    597c:	3a4010ef          	jal	6d20 <__addsf3>
    5980:	00050493          	mv	s1,a0
    5984:	00048593          	mv	a1,s1
    5988:	00048513          	mv	a0,s1
    598c:	06d010ef          	jal	71f8 <__mulsf3>
    5990:	0009e7b7          	lui	a5,0x9e
    5994:	9807a583          	lw	a1,-1664(a5) # 9d980 <CSWTCH.6+0x5ac>
    5998:	00050413          	mv	s0,a0
    599c:	548010ef          	jal	6ee4 <__divsf3>
    59a0:	00048593          	mv	a1,s1
    59a4:	055010ef          	jal	71f8 <__mulsf3>
    59a8:	00050793          	mv	a5,a0
    59ac:	00000593          	li	a1,0
    59b0:	00048513          	mv	a0,s1
    59b4:	00078493          	mv	s1,a5
    59b8:	368010ef          	jal	6d20 <__addsf3>
    59bc:	00048593          	mv	a1,s1
    59c0:	358010ef          	jal	6d18 <__subsf3>
    59c4:	0009e7b7          	lui	a5,0x9e
    59c8:	9847a583          	lw	a1,-1660(a5) # 9d984 <CSWTCH.6+0x5b0>
    59cc:	00050993          	mv	s3,a0
    59d0:	00040513          	mv	a0,s0
    59d4:	510010ef          	jal	6ee4 <__divsf3>
    59d8:	00048593          	mv	a1,s1
    59dc:	01d010ef          	jal	71f8 <__mulsf3>
    59e0:	0009e7b7          	lui	a5,0x9e
    59e4:	9887a583          	lw	a1,-1656(a5) # 9d988 <CSWTCH.6+0x5b4>
    59e8:	00050913          	mv	s2,a0
    59ec:	00040513          	mv	a0,s0
    59f0:	4f4010ef          	jal	6ee4 <__divsf3>
    59f4:	00090593          	mv	a1,s2
    59f8:	001010ef          	jal	71f8 <__mulsf3>
    59fc:	00050493          	mv	s1,a0
    5a00:	00090593          	mv	a1,s2
    5a04:	00098513          	mv	a0,s3
    5a08:	318010ef          	jal	6d20 <__addsf3>
    5a0c:	00048593          	mv	a1,s1
    5a10:	308010ef          	jal	6d18 <__subsf3>
    5a14:	0009e7b7          	lui	a5,0x9e
    5a18:	98c7a583          	lw	a1,-1652(a5) # 9d98c <CSWTCH.6+0x5b8>
    5a1c:	00050993          	mv	s3,a0
    5a20:	00040513          	mv	a0,s0
    5a24:	4c0010ef          	jal	6ee4 <__divsf3>
    5a28:	00048593          	mv	a1,s1
    5a2c:	7cc010ef          	jal	71f8 <__mulsf3>
    5a30:	0009e7b7          	lui	a5,0x9e
    5a34:	9907a583          	lw	a1,-1648(a5) # 9d990 <CSWTCH.6+0x5bc>
    5a38:	00050913          	mv	s2,a0
    5a3c:	00040513          	mv	a0,s0
    5a40:	4a4010ef          	jal	6ee4 <__divsf3>
    5a44:	00090593          	mv	a1,s2
    5a48:	7b0010ef          	jal	71f8 <__mulsf3>
    5a4c:	00050493          	mv	s1,a0
    5a50:	00090593          	mv	a1,s2
    5a54:	00098513          	mv	a0,s3
    5a58:	2c8010ef          	jal	6d20 <__addsf3>
    5a5c:	00048593          	mv	a1,s1
    5a60:	2b8010ef          	jal	6d18 <__subsf3>
    5a64:	0009e7b7          	lui	a5,0x9e
    5a68:	9947a583          	lw	a1,-1644(a5) # 9d994 <CSWTCH.6+0x5c0>
    5a6c:	00050993          	mv	s3,a0
    5a70:	00040513          	mv	a0,s0
    5a74:	470010ef          	jal	6ee4 <__divsf3>
    5a78:	00048593          	mv	a1,s1
    5a7c:	77c010ef          	jal	71f8 <__mulsf3>
    5a80:	0009e7b7          	lui	a5,0x9e
    5a84:	9987a583          	lw	a1,-1640(a5) # 9d998 <CSWTCH.6+0x5c4>
    5a88:	00050913          	mv	s2,a0
    5a8c:	00040513          	mv	a0,s0
    5a90:	454010ef          	jal	6ee4 <__divsf3>
    5a94:	00090593          	mv	a1,s2
    5a98:	760010ef          	jal	71f8 <__mulsf3>
    5a9c:	00050493          	mv	s1,a0
    5aa0:	00090593          	mv	a1,s2
    5aa4:	00098513          	mv	a0,s3
    5aa8:	278010ef          	jal	6d20 <__addsf3>
    5aac:	00048593          	mv	a1,s1
    5ab0:	268010ef          	jal	6d18 <__subsf3>
    5ab4:	0009e7b7          	lui	a5,0x9e
    5ab8:	99c7a583          	lw	a1,-1636(a5) # 9d99c <CSWTCH.6+0x5c8>
    5abc:	00050913          	mv	s2,a0
    5ac0:	00040513          	mv	a0,s0
    5ac4:	420010ef          	jal	6ee4 <__divsf3>
    5ac8:	00048593          	mv	a1,s1
    5acc:	72c010ef          	jal	71f8 <__mulsf3>
    5ad0:	00050493          	mv	s1,a0
    5ad4:	00050593          	mv	a1,a0
    5ad8:	00090513          	mv	a0,s2
    5adc:	244010ef          	jal	6d20 <__addsf3>
    5ae0:	0009e737          	lui	a4,0x9e
    5ae4:	9a072583          	lw	a1,-1632(a4) # 9d9a0 <CSWTCH.6+0x5cc>
    5ae8:	00050793          	mv	a5,a0
    5aec:	00040513          	mv	a0,s0
    5af0:	00078413          	mv	s0,a5
    5af4:	3f0010ef          	jal	6ee4 <__divsf3>
    5af8:	00048593          	mv	a1,s1
    5afc:	6fc010ef          	jal	71f8 <__mulsf3>
    5b00:	00050593          	mv	a1,a0
    5b04:	00040513          	mv	a0,s0
    5b08:	210010ef          	jal	6d18 <__subsf3>
    5b0c:	01c12083          	lw	ra,28(sp)
    5b10:	01812403          	lw	s0,24(sp)
    5b14:	01412483          	lw	s1,20(sp)
    5b18:	01012903          	lw	s2,16(sp)
    5b1c:	00c12983          	lw	s3,12(sp)
    5b20:	02010113          	addi	sp,sp,32
    5b24:	00008067          	ret

00005b28 <tan>:
    5b28:	fe010113          	addi	sp,sp,-32
    5b2c:	00812c23          	sw	s0,24(sp)
    5b30:	0009e437          	lui	s0,0x9e
    5b34:	96442583          	lw	a1,-1692(s0) # 9d964 <CSWTCH.6+0x590>
    5b38:	00112e23          	sw	ra,28(sp)
    5b3c:	00912a23          	sw	s1,20(sp)
    5b40:	01412423          	sw	s4,8(sp)
    5b44:	01212823          	sw	s2,16(sp)
    5b48:	01312623          	sw	s3,12(sp)
    5b4c:	01512223          	sw	s5,4(sp)
    5b50:	00050a13          	mv	s4,a0
    5b54:	390010ef          	jal	6ee4 <__divsf3>
    5b58:	520010ef          	jal	7078 <__fixsfsi>
    5b5c:	56c010ef          	jal	70c8 <__floatsisf>
    5b60:	96442583          	lw	a1,-1692(s0)
    5b64:	694010ef          	jal	71f8 <__mulsf3>
    5b68:	00050593          	mv	a1,a0
    5b6c:	000a0513          	mv	a0,s4
    5b70:	1a8010ef          	jal	6d18 <__subsf3>
    5b74:	00000593          	li	a1,0
    5b78:	00050493          	mv	s1,a0
    5b7c:	634010ef          	jal	71b0 <__ltsf2>
    5b80:	00055a63          	bgez	a0,5b94 <tan+0x6c>
    5b84:	96442583          	lw	a1,-1692(s0)
    5b88:	00048513          	mv	a0,s1
    5b8c:	194010ef          	jal	6d20 <__addsf3>
    5b90:	00050493          	mv	s1,a0
    5b94:	00048593          	mv	a1,s1
    5b98:	00048513          	mv	a0,s1
    5b9c:	65c010ef          	jal	71f8 <__mulsf3>
    5ba0:	0009e7b7          	lui	a5,0x9e
    5ba4:	8fc7a583          	lw	a1,-1796(a5) # 9d8fc <CSWTCH.6+0x528>
    5ba8:	00050413          	mv	s0,a0
    5bac:	64c010ef          	jal	71f8 <__mulsf3>
    5bb0:	0009e7b7          	lui	a5,0x9e
    5bb4:	9687a583          	lw	a1,-1688(a5) # 9d968 <CSWTCH.6+0x594>
    5bb8:	00050a93          	mv	s5,a0
    5bbc:	00040513          	mv	a0,s0
    5bc0:	324010ef          	jal	6ee4 <__divsf3>
    5bc4:	000a8593          	mv	a1,s5
    5bc8:	630010ef          	jal	71f8 <__mulsf3>
    5bcc:	0009e7b7          	lui	a5,0x9e
    5bd0:	92c7a583          	lw	a1,-1748(a5) # 9d92c <CSWTCH.6+0x558>
    5bd4:	00050993          	mv	s3,a0
    5bd8:	00040513          	mv	a0,s0
    5bdc:	308010ef          	jal	6ee4 <__divsf3>
    5be0:	00098593          	mv	a1,s3
    5be4:	614010ef          	jal	71f8 <__mulsf3>
    5be8:	0009e7b7          	lui	a5,0x9e
    5bec:	00050913          	mv	s2,a0
    5bf0:	9087a503          	lw	a0,-1784(a5) # 9d908 <CSWTCH.6+0x534>
    5bf4:	000a8593          	mv	a1,s5
    5bf8:	120010ef          	jal	6d18 <__subsf3>
    5bfc:	00098593          	mv	a1,s3
    5c00:	120010ef          	jal	6d20 <__addsf3>
    5c04:	00090593          	mv	a1,s2
    5c08:	110010ef          	jal	6d18 <__subsf3>
    5c0c:	0009e7b7          	lui	a5,0x9e
    5c10:	96c7a583          	lw	a1,-1684(a5) # 9d96c <CSWTCH.6+0x598>
    5c14:	00050a93          	mv	s5,a0
    5c18:	00040513          	mv	a0,s0
    5c1c:	2c8010ef          	jal	6ee4 <__divsf3>
    5c20:	00090593          	mv	a1,s2
    5c24:	5d4010ef          	jal	71f8 <__mulsf3>
    5c28:	0009e7b7          	lui	a5,0x9e
    5c2c:	9707a583          	lw	a1,-1680(a5) # 9d970 <CSWTCH.6+0x59c>
    5c30:	00050993          	mv	s3,a0
    5c34:	00040513          	mv	a0,s0
    5c38:	2ac010ef          	jal	6ee4 <__divsf3>
    5c3c:	00098593          	mv	a1,s3
    5c40:	5b8010ef          	jal	71f8 <__mulsf3>
    5c44:	00050913          	mv	s2,a0
    5c48:	00098593          	mv	a1,s3
    5c4c:	000a8513          	mv	a0,s5
    5c50:	0d0010ef          	jal	6d20 <__addsf3>
    5c54:	00090593          	mv	a1,s2
    5c58:	0c0010ef          	jal	6d18 <__subsf3>
    5c5c:	0009e7b7          	lui	a5,0x9e
    5c60:	9747a583          	lw	a1,-1676(a5) # 9d974 <CSWTCH.6+0x5a0>
    5c64:	00050a93          	mv	s5,a0
    5c68:	00040513          	mv	a0,s0
    5c6c:	278010ef          	jal	6ee4 <__divsf3>
    5c70:	00090593          	mv	a1,s2
    5c74:	584010ef          	jal	71f8 <__mulsf3>
    5c78:	0009e7b7          	lui	a5,0x9e
    5c7c:	9787a583          	lw	a1,-1672(a5) # 9d978 <CSWTCH.6+0x5a4>
    5c80:	00050993          	mv	s3,a0
    5c84:	00040513          	mv	a0,s0
    5c88:	25c010ef          	jal	6ee4 <__divsf3>
    5c8c:	00098593          	mv	a1,s3
    5c90:	568010ef          	jal	71f8 <__mulsf3>
    5c94:	00050913          	mv	s2,a0
    5c98:	00098593          	mv	a1,s3
    5c9c:	000a8513          	mv	a0,s5
    5ca0:	080010ef          	jal	6d20 <__addsf3>
    5ca4:	00090593          	mv	a1,s2
    5ca8:	070010ef          	jal	6d18 <__subsf3>
    5cac:	0009e7b7          	lui	a5,0x9e
    5cb0:	9587a583          	lw	a1,-1704(a5) # 9d958 <CSWTCH.6+0x584>
    5cb4:	00050993          	mv	s3,a0
    5cb8:	00040513          	mv	a0,s0
    5cbc:	228010ef          	jal	6ee4 <__divsf3>
    5cc0:	00090593          	mv	a1,s2
    5cc4:	534010ef          	jal	71f8 <__mulsf3>
    5cc8:	00050913          	mv	s2,a0
    5ccc:	00050593          	mv	a1,a0
    5cd0:	00098513          	mv	a0,s3
    5cd4:	04c010ef          	jal	6d20 <__addsf3>
    5cd8:	0009e7b7          	lui	a5,0x9e
    5cdc:	97c7a583          	lw	a1,-1668(a5) # 9d97c <CSWTCH.6+0x5a8>
    5ce0:	00050993          	mv	s3,a0
    5ce4:	00040513          	mv	a0,s0
    5ce8:	1fc010ef          	jal	6ee4 <__divsf3>
    5cec:	00090593          	mv	a1,s2
    5cf0:	508010ef          	jal	71f8 <__mulsf3>
    5cf4:	00050593          	mv	a1,a0
    5cf8:	00098513          	mv	a0,s3
    5cfc:	01c010ef          	jal	6d18 <__subsf3>
    5d00:	00000593          	li	a1,0
    5d04:	00050913          	mv	s2,a0
    5d08:	348010ef          	jal	7050 <__eqsf2>
    5d0c:	1a050463          	beqz	a0,5eb4 <tan+0x38c>
    5d10:	0009e7b7          	lui	a5,0x9e
    5d14:	9807a583          	lw	a1,-1664(a5) # 9d980 <CSWTCH.6+0x5ac>
    5d18:	00040513          	mv	a0,s0
    5d1c:	1c8010ef          	jal	6ee4 <__divsf3>
    5d20:	00048593          	mv	a1,s1
    5d24:	4d4010ef          	jal	71f8 <__mulsf3>
    5d28:	00050793          	mv	a5,a0
    5d2c:	00000593          	li	a1,0
    5d30:	00048513          	mv	a0,s1
    5d34:	00078493          	mv	s1,a5
    5d38:	7e9000ef          	jal	6d20 <__addsf3>
    5d3c:	00048593          	mv	a1,s1
    5d40:	7d9000ef          	jal	6d18 <__subsf3>
    5d44:	0009e7b7          	lui	a5,0x9e
    5d48:	9847a583          	lw	a1,-1660(a5) # 9d984 <CSWTCH.6+0x5b0>
    5d4c:	00050a13          	mv	s4,a0
    5d50:	00040513          	mv	a0,s0
    5d54:	190010ef          	jal	6ee4 <__divsf3>
    5d58:	00048593          	mv	a1,s1
    5d5c:	49c010ef          	jal	71f8 <__mulsf3>
    5d60:	0009e7b7          	lui	a5,0x9e
    5d64:	9887a583          	lw	a1,-1656(a5) # 9d988 <CSWTCH.6+0x5b4>
    5d68:	00050993          	mv	s3,a0
    5d6c:	00040513          	mv	a0,s0
    5d70:	174010ef          	jal	6ee4 <__divsf3>
    5d74:	00098593          	mv	a1,s3
    5d78:	480010ef          	jal	71f8 <__mulsf3>
    5d7c:	00050493          	mv	s1,a0
    5d80:	000a0593          	mv	a1,s4
    5d84:	00098513          	mv	a0,s3
    5d88:	799000ef          	jal	6d20 <__addsf3>
    5d8c:	00048593          	mv	a1,s1
    5d90:	789000ef          	jal	6d18 <__subsf3>
    5d94:	0009e7b7          	lui	a5,0x9e
    5d98:	98c7a583          	lw	a1,-1652(a5) # 9d98c <CSWTCH.6+0x5b8>
    5d9c:	00050a13          	mv	s4,a0
    5da0:	00040513          	mv	a0,s0
    5da4:	140010ef          	jal	6ee4 <__divsf3>
    5da8:	00048593          	mv	a1,s1
    5dac:	44c010ef          	jal	71f8 <__mulsf3>
    5db0:	0009e7b7          	lui	a5,0x9e
    5db4:	9907a583          	lw	a1,-1648(a5) # 9d990 <CSWTCH.6+0x5bc>
    5db8:	00050993          	mv	s3,a0
    5dbc:	00040513          	mv	a0,s0
    5dc0:	124010ef          	jal	6ee4 <__divsf3>
    5dc4:	00098593          	mv	a1,s3
    5dc8:	430010ef          	jal	71f8 <__mulsf3>
    5dcc:	00050493          	mv	s1,a0
    5dd0:	00098593          	mv	a1,s3
    5dd4:	000a0513          	mv	a0,s4
    5dd8:	749000ef          	jal	6d20 <__addsf3>
    5ddc:	00048593          	mv	a1,s1
    5de0:	739000ef          	jal	6d18 <__subsf3>
    5de4:	0009e7b7          	lui	a5,0x9e
    5de8:	9947a583          	lw	a1,-1644(a5) # 9d994 <CSWTCH.6+0x5c0>
    5dec:	00050a13          	mv	s4,a0
    5df0:	00040513          	mv	a0,s0
    5df4:	0f0010ef          	jal	6ee4 <__divsf3>
    5df8:	00048593          	mv	a1,s1
    5dfc:	3fc010ef          	jal	71f8 <__mulsf3>
    5e00:	0009e7b7          	lui	a5,0x9e
    5e04:	9987a583          	lw	a1,-1640(a5) # 9d998 <CSWTCH.6+0x5c4>
    5e08:	00050993          	mv	s3,a0
    5e0c:	00040513          	mv	a0,s0
    5e10:	0d4010ef          	jal	6ee4 <__divsf3>
    5e14:	00098593          	mv	a1,s3
    5e18:	3e0010ef          	jal	71f8 <__mulsf3>
    5e1c:	00050493          	mv	s1,a0
    5e20:	000a0593          	mv	a1,s4
    5e24:	00098513          	mv	a0,s3
    5e28:	6f9000ef          	jal	6d20 <__addsf3>
    5e2c:	00048593          	mv	a1,s1
    5e30:	6e9000ef          	jal	6d18 <__subsf3>
    5e34:	0009e7b7          	lui	a5,0x9e
    5e38:	99c7a583          	lw	a1,-1636(a5) # 9d99c <CSWTCH.6+0x5c8>
    5e3c:	00050993          	mv	s3,a0
    5e40:	00040513          	mv	a0,s0
    5e44:	0a0010ef          	jal	6ee4 <__divsf3>
    5e48:	00048593          	mv	a1,s1
    5e4c:	3ac010ef          	jal	71f8 <__mulsf3>
    5e50:	00098593          	mv	a1,s3
    5e54:	00050493          	mv	s1,a0
    5e58:	6c9000ef          	jal	6d20 <__addsf3>
    5e5c:	0009e737          	lui	a4,0x9e
    5e60:	9a072583          	lw	a1,-1632(a4) # 9d9a0 <CSWTCH.6+0x5cc>
    5e64:	00050793          	mv	a5,a0
    5e68:	00040513          	mv	a0,s0
    5e6c:	00078413          	mv	s0,a5
    5e70:	074010ef          	jal	6ee4 <__divsf3>
    5e74:	00048593          	mv	a1,s1
    5e78:	380010ef          	jal	71f8 <__mulsf3>
    5e7c:	00050593          	mv	a1,a0
    5e80:	00040513          	mv	a0,s0
    5e84:	695000ef          	jal	6d18 <__subsf3>
    5e88:	00090593          	mv	a1,s2
    5e8c:	058010ef          	jal	6ee4 <__divsf3>
    5e90:	01c12083          	lw	ra,28(sp)
    5e94:	01812403          	lw	s0,24(sp)
    5e98:	01412483          	lw	s1,20(sp)
    5e9c:	01012903          	lw	s2,16(sp)
    5ea0:	00c12983          	lw	s3,12(sp)
    5ea4:	00812a03          	lw	s4,8(sp)
    5ea8:	00412a83          	lw	s5,4(sp)
    5eac:	02010113          	addi	sp,sp,32
    5eb0:	00008067          	ret
    5eb4:	00000593          	li	a1,0
    5eb8:	000a0513          	mv	a0,s4
    5ebc:	2b4010ef          	jal	7170 <__gtsf2>
    5ec0:	00a05863          	blez	a0,5ed0 <tan+0x3a8>
    5ec4:	0009e7b7          	lui	a5,0x9e
    5ec8:	9a87a503          	lw	a0,-1624(a5) # 9d9a8 <CSWTCH.6+0x5d4>
    5ecc:	fc5ff06f          	j	5e90 <tan+0x368>
    5ed0:	0009e7b7          	lui	a5,0x9e
    5ed4:	9a47a503          	lw	a0,-1628(a5) # 9d9a4 <CSWTCH.6+0x5d0>
    5ed8:	fb9ff06f          	j	5e90 <tan+0x368>

00005edc <qsort>:
    5edc:	00050a63          	beqz	a0,5ef0 <qsort+0x14>
    5ee0:	00068863          	beqz	a3,5ef0 <qsort+0x14>
    5ee4:	00060663          	beqz	a2,5ef0 <qsort+0x14>
    5ee8:	00058463          	beqz	a1,5ef0 <qsort+0x14>
    5eec:	a14ff06f          	j	5100 <quicksort>
    5ef0:	00008067          	ret

00005ef4 <create_mesh3>:
    5ef4:	00b52023          	sw	a1,0(a0)
    5ef8:	00c52223          	sw	a2,4(a0)
    5efc:	00008067          	ret

00005f00 <create_mesh4>:
    5f00:	00b52023          	sw	a1,0(a0)
    5f04:	00c52223          	sw	a2,4(a0)
    5f08:	00008067          	ret

00005f0c <merge_mesh4>:
    5f0c:	cf010113          	addi	sp,sp,-784
    5f10:	30812623          	sw	s0,780(sp)
    5f14:	30912423          	sw	s1,776(sp)
    5f18:	0005a803          	lw	a6,0(a1)
    5f1c:	0045a483          	lw	s1,4(a1)
    5f20:	00062e83          	lw	t4,0(a2)
    5f24:	00462403          	lw	s0,4(a2)
    5f28:	31212223          	sw	s2,772(sp)
    5f2c:	fffff2b7          	lui	t0,0xfffff
    5f30:	00510133          	add	sp,sp,t0
    5f34:	01d80fb3          	add	t6,a6,t4
    5f38:	00848f33          	add	t5,s1,s0
    5f3c:	05005c63          	blez	a6,5f94 <merge_mesh4+0x88>
    5f40:	fffff737          	lui	a4,0xfffff
    5f44:	000016b7          	lui	a3,0x1
    5f48:	d4070713          	addi	a4,a4,-704 # ffffed40 <_stack_end+0xffe612a4>
    5f4c:	2f068693          	addi	a3,a3,752 # 12f0 <update_VGA+0xa8>
    5f50:	00e686b3          	add	a3,a3,a4
    5f54:	00858793          	addi	a5,a1,8
    5f58:	00481293          	slli	t0,a6,0x4
    5f5c:	01010713          	addi	a4,sp,16
    5f60:	00e68733          	add	a4,a3,a4
    5f64:	005782b3          	add	t0,a5,t0
    5f68:	0007ae03          	lw	t3,0(a5)
    5f6c:	0047a303          	lw	t1,4(a5)
    5f70:	0087a883          	lw	a7,8(a5)
    5f74:	00c7a683          	lw	a3,12(a5)
    5f78:	01c72023          	sw	t3,0(a4)
    5f7c:	00672223          	sw	t1,4(a4)
    5f80:	01172423          	sw	a7,8(a4)
    5f84:	00d72623          	sw	a3,12(a4)
    5f88:	01078793          	addi	a5,a5,16
    5f8c:	01070713          	addi	a4,a4,16
    5f90:	fc579ce3          	bne	a5,t0,5f68 <merge_mesh4+0x5c>
    5f94:	07d05463          	blez	t4,5ffc <merge_mesh4+0xf0>
    5f98:	fffff6b7          	lui	a3,0xfffff
    5f9c:	000018b7          	lui	a7,0x1
    5fa0:	d3868693          	addi	a3,a3,-712 # ffffed38 <_stack_end+0xffe6129c>
    5fa4:	2f088893          	addi	a7,a7,752 # 12f0 <update_VGA+0xa8>
    5fa8:	00d888b3          	add	a7,a7,a3
    5fac:	00481713          	slli	a4,a6,0x4
    5fb0:	01010693          	addi	a3,sp,16
    5fb4:	00d886b3          	add	a3,a7,a3
    5fb8:	00860793          	addi	a5,a2,8
    5fbc:	00870713          	addi	a4,a4,8
    5fc0:	004e9e93          	slli	t4,t4,0x4
    5fc4:	00d12623          	sw	a3,12(sp)
    5fc8:	00e68733          	add	a4,a3,a4
    5fcc:	01d78eb3          	add	t4,a5,t4
    5fd0:	0007ae03          	lw	t3,0(a5)
    5fd4:	0047a303          	lw	t1,4(a5)
    5fd8:	0087a883          	lw	a7,8(a5)
    5fdc:	00c7a683          	lw	a3,12(a5)
    5fe0:	01c72023          	sw	t3,0(a4)
    5fe4:	00672223          	sw	t1,4(a4)
    5fe8:	01172423          	sw	a7,8(a4)
    5fec:	00d72623          	sw	a3,12(a4)
    5ff0:	01078793          	addi	a5,a5,16
    5ff4:	01070713          	addi	a4,a4,16
    5ff8:	fdd79ce3          	bne	a5,t4,5fd0 <merge_mesh4+0xc4>
    5ffc:	06905c63          	blez	s1,6074 <merge_mesh4+0x168>
    6000:	fffff7b7          	lui	a5,0xfffff
    6004:	00001737          	lui	a4,0x1
    6008:	38078793          	addi	a5,a5,896 # fffff380 <_stack_end+0xffe618e4>
    600c:	2f070713          	addi	a4,a4,752 # 12f0 <update_VGA+0xa8>
    6010:	00f70733          	add	a4,a4,a5
    6014:	64858593          	addi	a1,a1,1608
    6018:	00549913          	slli	s2,s1,0x5
    601c:	01010793          	addi	a5,sp,16
    6020:	00f707b3          	add	a5,a4,a5
    6024:	01258933          	add	s2,a1,s2
    6028:	0005a383          	lw	t2,0(a1)
    602c:	0045a283          	lw	t0,4(a1)
    6030:	0085ae83          	lw	t4,8(a1)
    6034:	00c5ae03          	lw	t3,12(a1)
    6038:	0105a303          	lw	t1,16(a1)
    603c:	0145a883          	lw	a7,20(a1)
    6040:	0185a683          	lw	a3,24(a1)
    6044:	01c5a703          	lw	a4,28(a1)
    6048:	0077a023          	sw	t2,0(a5)
    604c:	0057a223          	sw	t0,4(a5)
    6050:	01d7a423          	sw	t4,8(a5)
    6054:	01c7a623          	sw	t3,12(a5)
    6058:	0067a823          	sw	t1,16(a5)
    605c:	0117aa23          	sw	a7,20(a5)
    6060:	00d7ac23          	sw	a3,24(a5)
    6064:	00e7ae23          	sw	a4,28(a5)
    6068:	02058593          	addi	a1,a1,32
    606c:	02078793          	addi	a5,a5,32
    6070:	fb259ce3          	bne	a1,s2,6028 <merge_mesh4+0x11c>
    6074:	0c805663          	blez	s0,6140 <merge_mesh4+0x234>
    6078:	000016b7          	lui	a3,0x1
    607c:	fffff7b7          	lui	a5,0xfffff
    6080:	d3878793          	addi	a5,a5,-712 # ffffed38 <_stack_end+0xffe6129c>
    6084:	2f068713          	addi	a4,a3,752 # 12f0 <update_VGA+0xa8>
    6088:	00f70733          	add	a4,a4,a5
    608c:	01010793          	addi	a5,sp,16
    6090:	00f707b3          	add	a5,a4,a5
    6094:	2f068693          	addi	a3,a3,752
    6098:	fffff737          	lui	a4,0xfffff
    609c:	00e686b3          	add	a3,a3,a4
    60a0:	00549493          	slli	s1,s1,0x5
    60a4:	01010713          	addi	a4,sp,16
    60a8:	64860613          	addi	a2,a2,1608
    60ac:	64848493          	addi	s1,s1,1608
    60b0:	00541413          	slli	s0,s0,0x5
    60b4:	00e68733          	add	a4,a3,a4
    60b8:	009787b3          	add	a5,a5,s1
    60bc:	00860433          	add	s0,a2,s0
    60c0:	00e12623          	sw	a4,12(sp)
    60c4:	00062583          	lw	a1,0(a2)
    60c8:	00462683          	lw	a3,4(a2)
    60cc:	00862703          	lw	a4,8(a2)
    60d0:	00c12383          	lw	t2,12(sp)
    60d4:	00c62283          	lw	t0,12(a2)
    60d8:	01062e83          	lw	t4,16(a2)
    60dc:	01462e03          	lw	t3,20(a2)
    60e0:	01862303          	lw	t1,24(a2)
    60e4:	01c62883          	lw	a7,28(a2)
    60e8:	00d806b3          	add	a3,a6,a3
    60ec:	00e80733          	add	a4,a6,a4
    60f0:	010585b3          	add	a1,a1,a6
    60f4:	00b7a023          	sw	a1,0(a5)
    60f8:	00d7a223          	sw	a3,4(a5)
    60fc:	00e7a423          	sw	a4,8(a5)
    6100:	0057a623          	sw	t0,12(a5)
    6104:	01d7a823          	sw	t4,16(a5)
    6108:	01c7aa23          	sw	t3,20(a5)
    610c:	0067ac23          	sw	t1,24(a5)
    6110:	0117ae23          	sw	a7,28(a5)
    6114:	d253a223          	sw	t0,-732(t2)
    6118:	d3d3a423          	sw	t4,-728(t2)
    611c:	d3c3a623          	sw	t3,-724(t2)
    6120:	d263a823          	sw	t1,-720(t2)
    6124:	d313aa23          	sw	a7,-716(t2)
    6128:	d0b3ac23          	sw	a1,-744(t2)
    612c:	d0d3ae23          	sw	a3,-740(t2)
    6130:	d2e3a023          	sw	a4,-736(t2)
    6134:	02060613          	addi	a2,a2,32
    6138:	02078793          	addi	a5,a5,32
    613c:	f88614e3          	bne	a2,s0,60c4 <merge_mesh4+0x1b8>
    6140:	00001737          	lui	a4,0x1
    6144:	fffff7b7          	lui	a5,0xfffff
    6148:	2f070713          	addi	a4,a4,752 # 12f0 <update_VGA+0xa8>
    614c:	00f70733          	add	a4,a4,a5
    6150:	01010793          	addi	a5,sp,16
    6154:	00f707b3          	add	a5,a4,a5
    6158:	00f12623          	sw	a5,12(sp)
    615c:	00c12703          	lw	a4,12(sp)
    6160:	000016b7          	lui	a3,0x1
    6164:	d3878793          	addi	a5,a5,-712 # ffffed38 <_stack_end+0xffe6129c>
    6168:	2c068693          	addi	a3,a3,704 # 12c0 <update_VGA+0x78>
    616c:	d3f72c23          	sw	t6,-712(a4)
    6170:	d3e72e23          	sw	t5,-708(a4)
    6174:	00d786b3          	add	a3,a5,a3
    6178:	00050713          	mv	a4,a0
    617c:	0007a883          	lw	a7,0(a5)
    6180:	0047a803          	lw	a6,4(a5)
    6184:	0087a583          	lw	a1,8(a5)
    6188:	00c7a603          	lw	a2,12(a5)
    618c:	01172023          	sw	a7,0(a4)
    6190:	01072223          	sw	a6,4(a4)
    6194:	00b72423          	sw	a1,8(a4)
    6198:	00c72623          	sw	a2,12(a4)
    619c:	01078793          	addi	a5,a5,16
    61a0:	01070713          	addi	a4,a4,16
    61a4:	fcd79ce3          	bne	a5,a3,617c <merge_mesh4+0x270>
    61a8:	0007a683          	lw	a3,0(a5)
    61ac:	0047a783          	lw	a5,4(a5)
    61b0:	000012b7          	lui	t0,0x1
    61b4:	00d72023          	sw	a3,0(a4)
    61b8:	00f72223          	sw	a5,4(a4)
    61bc:	00510133          	add	sp,sp,t0
    61c0:	30c12403          	lw	s0,780(sp)
    61c4:	30812483          	lw	s1,776(sp)
    61c8:	30412903          	lw	s2,772(sp)
    61cc:	31010113          	addi	sp,sp,784
    61d0:	00008067          	ret

000061d4 <rotate_x_mesh4>:
    61d4:	ef010113          	addi	sp,sp,-272
    61d8:	0f312e23          	sw	s3,252(sp)
    61dc:	00050993          	mv	s3,a0
    61e0:	0b010513          	addi	a0,sp,176
    61e4:	10912223          	sw	s1,260(sp)
    61e8:	10112623          	sw	ra,268(sp)
    61ec:	00060493          	mv	s1,a2
    61f0:	e74fe0ef          	jal	4864 <rotation_x_matrix4>
    61f4:	0009a783          	lw	a5,0(s3)
    61f8:	16f05e63          	blez	a5,6374 <rotate_x_mesh4+0x1a0>
    61fc:	10812423          	sw	s0,264(sp)
    6200:	11212023          	sw	s2,256(sp)
    6204:	0f412c23          	sw	s4,248(sp)
    6208:	00898413          	addi	s0,s3,8
    620c:	00000913          	li	s2,0
    6210:	0f010a13          	addi	s4,sp,240
    6214:	0084a703          	lw	a4,8(s1)
    6218:	00c4a783          	lw	a5,12(s1)
    621c:	00442e03          	lw	t3,4(s0)
    6220:	00842303          	lw	t1,8(s0)
    6224:	00c42883          	lw	a7,12(s0)
    6228:	00042e83          	lw	t4,0(s0)
    622c:	0004a803          	lw	a6,0(s1)
    6230:	0044a683          	lw	a3,4(s1)
    6234:	04010613          	addi	a2,sp,64
    6238:	05010593          	addi	a1,sp,80
    623c:	08010513          	addi	a0,sp,128
    6240:	06e12c23          	sw	a4,120(sp)
    6244:	06f12e23          	sw	a5,124(sp)
    6248:	04e12423          	sw	a4,72(sp)
    624c:	04f12623          	sw	a5,76(sp)
    6250:	07d12023          	sw	t4,96(sp)
    6254:	07c12223          	sw	t3,100(sp)
    6258:	06612423          	sw	t1,104(sp)
    625c:	07112623          	sw	a7,108(sp)
    6260:	07012823          	sw	a6,112(sp)
    6264:	06d12a23          	sw	a3,116(sp)
    6268:	05d12823          	sw	t4,80(sp)
    626c:	05c12a23          	sw	t3,84(sp)
    6270:	04612c23          	sw	t1,88(sp)
    6274:	05112e23          	sw	a7,92(sp)
    6278:	05012023          	sw	a6,64(sp)
    627c:	04d12223          	sw	a3,68(sp)
    6280:	df5fd0ef          	jal	4074 <vec4_sub>
    6284:	0b010793          	addi	a5,sp,176
    6288:	00010713          	mv	a4,sp
    628c:	0007a503          	lw	a0,0(a5)
    6290:	0047a583          	lw	a1,4(a5)
    6294:	0087a603          	lw	a2,8(a5)
    6298:	00c7a683          	lw	a3,12(a5)
    629c:	00a72023          	sw	a0,0(a4)
    62a0:	00b72223          	sw	a1,4(a4)
    62a4:	00c72423          	sw	a2,8(a4)
    62a8:	00d72623          	sw	a3,12(a4)
    62ac:	01078793          	addi	a5,a5,16
    62b0:	01070713          	addi	a4,a4,16
    62b4:	fd479ce3          	bne	a5,s4,628c <rotate_x_mesh4+0xb8>
    62b8:	08012783          	lw	a5,128(sp)
    62bc:	05010613          	addi	a2,sp,80
    62c0:	00010593          	mv	a1,sp
    62c4:	04f12823          	sw	a5,80(sp)
    62c8:	08412783          	lw	a5,132(sp)
    62cc:	09010513          	addi	a0,sp,144
    62d0:	00190913          	addi	s2,s2,1
    62d4:	04f12a23          	sw	a5,84(sp)
    62d8:	08812783          	lw	a5,136(sp)
    62dc:	01040413          	addi	s0,s0,16
    62e0:	04f12c23          	sw	a5,88(sp)
    62e4:	08c12783          	lw	a5,140(sp)
    62e8:	04f12e23          	sw	a5,92(sp)
    62ec:	a9dfe0ef          	jal	4d88 <mat4_mul_vec4>
    62f0:	09012783          	lw	a5,144(sp)
    62f4:	04010613          	addi	a2,sp,64
    62f8:	05010593          	addi	a1,sp,80
    62fc:	04f12823          	sw	a5,80(sp)
    6300:	09412783          	lw	a5,148(sp)
    6304:	0a010513          	addi	a0,sp,160
    6308:	04f12a23          	sw	a5,84(sp)
    630c:	09812783          	lw	a5,152(sp)
    6310:	04f12c23          	sw	a5,88(sp)
    6314:	09c12783          	lw	a5,156(sp)
    6318:	04f12e23          	sw	a5,92(sp)
    631c:	07012783          	lw	a5,112(sp)
    6320:	04f12023          	sw	a5,64(sp)
    6324:	07412783          	lw	a5,116(sp)
    6328:	04f12223          	sw	a5,68(sp)
    632c:	07812783          	lw	a5,120(sp)
    6330:	04f12423          	sw	a5,72(sp)
    6334:	07c12783          	lw	a5,124(sp)
    6338:	04f12623          	sw	a5,76(sp)
    633c:	c9dfd0ef          	jal	3fd8 <vec4_add>
    6340:	0a012703          	lw	a4,160(sp)
    6344:	0009a783          	lw	a5,0(s3)
    6348:	fee42823          	sw	a4,-16(s0)
    634c:	0a412703          	lw	a4,164(sp)
    6350:	fee42a23          	sw	a4,-12(s0)
    6354:	0a812703          	lw	a4,168(sp)
    6358:	fee42c23          	sw	a4,-8(s0)
    635c:	0ac12703          	lw	a4,172(sp)
    6360:	fee42e23          	sw	a4,-4(s0)
    6364:	eaf948e3          	blt	s2,a5,6214 <rotate_x_mesh4+0x40>
    6368:	10812403          	lw	s0,264(sp)
    636c:	10012903          	lw	s2,256(sp)
    6370:	0f812a03          	lw	s4,248(sp)
    6374:	10c12083          	lw	ra,268(sp)
    6378:	10412483          	lw	s1,260(sp)
    637c:	0fc12983          	lw	s3,252(sp)
    6380:	11010113          	addi	sp,sp,272
    6384:	00008067          	ret

00006388 <rotate_y_mesh4>:
    6388:	ef010113          	addi	sp,sp,-272
    638c:	0f312e23          	sw	s3,252(sp)
    6390:	00050993          	mv	s3,a0
    6394:	0b010513          	addi	a0,sp,176
    6398:	10912223          	sw	s1,260(sp)
    639c:	10112623          	sw	ra,268(sp)
    63a0:	00060493          	mv	s1,a2
    63a4:	d84fe0ef          	jal	4928 <rotation_y_matrix4>
    63a8:	0009a783          	lw	a5,0(s3)
    63ac:	16f05e63          	blez	a5,6528 <rotate_y_mesh4+0x1a0>
    63b0:	10812423          	sw	s0,264(sp)
    63b4:	11212023          	sw	s2,256(sp)
    63b8:	0f412c23          	sw	s4,248(sp)
    63bc:	00898413          	addi	s0,s3,8
    63c0:	00000913          	li	s2,0
    63c4:	0f010a13          	addi	s4,sp,240
    63c8:	0084a703          	lw	a4,8(s1)
    63cc:	00c4a783          	lw	a5,12(s1)
    63d0:	00442e03          	lw	t3,4(s0)
    63d4:	00842303          	lw	t1,8(s0)
    63d8:	00c42883          	lw	a7,12(s0)
    63dc:	00042e83          	lw	t4,0(s0)
    63e0:	0004a803          	lw	a6,0(s1)
    63e4:	0044a683          	lw	a3,4(s1)
    63e8:	04010613          	addi	a2,sp,64
    63ec:	05010593          	addi	a1,sp,80
    63f0:	08010513          	addi	a0,sp,128
    63f4:	06e12c23          	sw	a4,120(sp)
    63f8:	06f12e23          	sw	a5,124(sp)
    63fc:	04e12423          	sw	a4,72(sp)
    6400:	04f12623          	sw	a5,76(sp)
    6404:	07d12023          	sw	t4,96(sp)
    6408:	07c12223          	sw	t3,100(sp)
    640c:	06612423          	sw	t1,104(sp)
    6410:	07112623          	sw	a7,108(sp)
    6414:	07012823          	sw	a6,112(sp)
    6418:	06d12a23          	sw	a3,116(sp)
    641c:	05d12823          	sw	t4,80(sp)
    6420:	05c12a23          	sw	t3,84(sp)
    6424:	04612c23          	sw	t1,88(sp)
    6428:	05112e23          	sw	a7,92(sp)
    642c:	05012023          	sw	a6,64(sp)
    6430:	04d12223          	sw	a3,68(sp)
    6434:	c41fd0ef          	jal	4074 <vec4_sub>
    6438:	0b010793          	addi	a5,sp,176
    643c:	00010713          	mv	a4,sp
    6440:	0007a503          	lw	a0,0(a5)
    6444:	0047a583          	lw	a1,4(a5)
    6448:	0087a603          	lw	a2,8(a5)
    644c:	00c7a683          	lw	a3,12(a5)
    6450:	00a72023          	sw	a0,0(a4)
    6454:	00b72223          	sw	a1,4(a4)
    6458:	00c72423          	sw	a2,8(a4)
    645c:	00d72623          	sw	a3,12(a4)
    6460:	01078793          	addi	a5,a5,16
    6464:	01070713          	addi	a4,a4,16
    6468:	fd479ce3          	bne	a5,s4,6440 <rotate_y_mesh4+0xb8>
    646c:	08012783          	lw	a5,128(sp)
    6470:	05010613          	addi	a2,sp,80
    6474:	00010593          	mv	a1,sp
    6478:	04f12823          	sw	a5,80(sp)
    647c:	08412783          	lw	a5,132(sp)
    6480:	09010513          	addi	a0,sp,144
    6484:	00190913          	addi	s2,s2,1
    6488:	04f12a23          	sw	a5,84(sp)
    648c:	08812783          	lw	a5,136(sp)
    6490:	01040413          	addi	s0,s0,16
    6494:	04f12c23          	sw	a5,88(sp)
    6498:	08c12783          	lw	a5,140(sp)
    649c:	04f12e23          	sw	a5,92(sp)
    64a0:	8e9fe0ef          	jal	4d88 <mat4_mul_vec4>
    64a4:	09012783          	lw	a5,144(sp)
    64a8:	04010613          	addi	a2,sp,64
    64ac:	05010593          	addi	a1,sp,80
    64b0:	04f12823          	sw	a5,80(sp)
    64b4:	09412783          	lw	a5,148(sp)
    64b8:	0a010513          	addi	a0,sp,160
    64bc:	04f12a23          	sw	a5,84(sp)
    64c0:	09812783          	lw	a5,152(sp)
    64c4:	04f12c23          	sw	a5,88(sp)
    64c8:	09c12783          	lw	a5,156(sp)
    64cc:	04f12e23          	sw	a5,92(sp)
    64d0:	07012783          	lw	a5,112(sp)
    64d4:	04f12023          	sw	a5,64(sp)
    64d8:	07412783          	lw	a5,116(sp)
    64dc:	04f12223          	sw	a5,68(sp)
    64e0:	07812783          	lw	a5,120(sp)
    64e4:	04f12423          	sw	a5,72(sp)
    64e8:	07c12783          	lw	a5,124(sp)
    64ec:	04f12623          	sw	a5,76(sp)
    64f0:	ae9fd0ef          	jal	3fd8 <vec4_add>
    64f4:	0a012703          	lw	a4,160(sp)
    64f8:	0009a783          	lw	a5,0(s3)
    64fc:	fee42823          	sw	a4,-16(s0)
    6500:	0a412703          	lw	a4,164(sp)
    6504:	fee42a23          	sw	a4,-12(s0)
    6508:	0a812703          	lw	a4,168(sp)
    650c:	fee42c23          	sw	a4,-8(s0)
    6510:	0ac12703          	lw	a4,172(sp)
    6514:	fee42e23          	sw	a4,-4(s0)
    6518:	eaf948e3          	blt	s2,a5,63c8 <rotate_y_mesh4+0x40>
    651c:	10812403          	lw	s0,264(sp)
    6520:	10012903          	lw	s2,256(sp)
    6524:	0f812a03          	lw	s4,248(sp)
    6528:	10c12083          	lw	ra,268(sp)
    652c:	10412483          	lw	s1,260(sp)
    6530:	0fc12983          	lw	s3,252(sp)
    6534:	11010113          	addi	sp,sp,272
    6538:	00008067          	ret

0000653c <rotate_z_mesh4>:
    653c:	ef010113          	addi	sp,sp,-272
    6540:	0f312e23          	sw	s3,252(sp)
    6544:	00050993          	mv	s3,a0
    6548:	0b010513          	addi	a0,sp,176
    654c:	10912223          	sw	s1,260(sp)
    6550:	10112623          	sw	ra,268(sp)
    6554:	00060493          	mv	s1,a2
    6558:	c94fe0ef          	jal	49ec <rotation_z_matrix4>
    655c:	0009a783          	lw	a5,0(s3)
    6560:	16f05e63          	blez	a5,66dc <rotate_z_mesh4+0x1a0>
    6564:	10812423          	sw	s0,264(sp)
    6568:	11212023          	sw	s2,256(sp)
    656c:	0f412c23          	sw	s4,248(sp)
    6570:	00898413          	addi	s0,s3,8
    6574:	00000913          	li	s2,0
    6578:	0f010a13          	addi	s4,sp,240
    657c:	0084a703          	lw	a4,8(s1)
    6580:	00c4a783          	lw	a5,12(s1)
    6584:	00442e03          	lw	t3,4(s0)
    6588:	00842303          	lw	t1,8(s0)
    658c:	00c42883          	lw	a7,12(s0)
    6590:	00042e83          	lw	t4,0(s0)
    6594:	0004a803          	lw	a6,0(s1)
    6598:	0044a683          	lw	a3,4(s1)
    659c:	04010613          	addi	a2,sp,64
    65a0:	05010593          	addi	a1,sp,80
    65a4:	08010513          	addi	a0,sp,128
    65a8:	06e12c23          	sw	a4,120(sp)
    65ac:	06f12e23          	sw	a5,124(sp)
    65b0:	04e12423          	sw	a4,72(sp)
    65b4:	04f12623          	sw	a5,76(sp)
    65b8:	07d12023          	sw	t4,96(sp)
    65bc:	07c12223          	sw	t3,100(sp)
    65c0:	06612423          	sw	t1,104(sp)
    65c4:	07112623          	sw	a7,108(sp)
    65c8:	07012823          	sw	a6,112(sp)
    65cc:	06d12a23          	sw	a3,116(sp)
    65d0:	05d12823          	sw	t4,80(sp)
    65d4:	05c12a23          	sw	t3,84(sp)
    65d8:	04612c23          	sw	t1,88(sp)
    65dc:	05112e23          	sw	a7,92(sp)
    65e0:	05012023          	sw	a6,64(sp)
    65e4:	04d12223          	sw	a3,68(sp)
    65e8:	a8dfd0ef          	jal	4074 <vec4_sub>
    65ec:	0b010793          	addi	a5,sp,176
    65f0:	00010713          	mv	a4,sp
    65f4:	0007a503          	lw	a0,0(a5)
    65f8:	0047a583          	lw	a1,4(a5)
    65fc:	0087a603          	lw	a2,8(a5)
    6600:	00c7a683          	lw	a3,12(a5)
    6604:	00a72023          	sw	a0,0(a4)
    6608:	00b72223          	sw	a1,4(a4)
    660c:	00c72423          	sw	a2,8(a4)
    6610:	00d72623          	sw	a3,12(a4)
    6614:	01078793          	addi	a5,a5,16
    6618:	01070713          	addi	a4,a4,16
    661c:	fd479ce3          	bne	a5,s4,65f4 <rotate_z_mesh4+0xb8>
    6620:	08012783          	lw	a5,128(sp)
    6624:	05010613          	addi	a2,sp,80
    6628:	00010593          	mv	a1,sp
    662c:	04f12823          	sw	a5,80(sp)
    6630:	08412783          	lw	a5,132(sp)
    6634:	09010513          	addi	a0,sp,144
    6638:	00190913          	addi	s2,s2,1
    663c:	04f12a23          	sw	a5,84(sp)
    6640:	08812783          	lw	a5,136(sp)
    6644:	01040413          	addi	s0,s0,16
    6648:	04f12c23          	sw	a5,88(sp)
    664c:	08c12783          	lw	a5,140(sp)
    6650:	04f12e23          	sw	a5,92(sp)
    6654:	f34fe0ef          	jal	4d88 <mat4_mul_vec4>
    6658:	09012783          	lw	a5,144(sp)
    665c:	04010613          	addi	a2,sp,64
    6660:	05010593          	addi	a1,sp,80
    6664:	04f12823          	sw	a5,80(sp)
    6668:	09412783          	lw	a5,148(sp)
    666c:	0a010513          	addi	a0,sp,160
    6670:	04f12a23          	sw	a5,84(sp)
    6674:	09812783          	lw	a5,152(sp)
    6678:	04f12c23          	sw	a5,88(sp)
    667c:	09c12783          	lw	a5,156(sp)
    6680:	04f12e23          	sw	a5,92(sp)
    6684:	07012783          	lw	a5,112(sp)
    6688:	04f12023          	sw	a5,64(sp)
    668c:	07412783          	lw	a5,116(sp)
    6690:	04f12223          	sw	a5,68(sp)
    6694:	07812783          	lw	a5,120(sp)
    6698:	04f12423          	sw	a5,72(sp)
    669c:	07c12783          	lw	a5,124(sp)
    66a0:	04f12623          	sw	a5,76(sp)
    66a4:	935fd0ef          	jal	3fd8 <vec4_add>
    66a8:	0a012703          	lw	a4,160(sp)
    66ac:	0009a783          	lw	a5,0(s3)
    66b0:	fee42823          	sw	a4,-16(s0)
    66b4:	0a412703          	lw	a4,164(sp)
    66b8:	fee42a23          	sw	a4,-12(s0)
    66bc:	0a812703          	lw	a4,168(sp)
    66c0:	fee42c23          	sw	a4,-8(s0)
    66c4:	0ac12703          	lw	a4,172(sp)
    66c8:	fee42e23          	sw	a4,-4(s0)
    66cc:	eaf948e3          	blt	s2,a5,657c <rotate_z_mesh4+0x40>
    66d0:	10812403          	lw	s0,264(sp)
    66d4:	10012903          	lw	s2,256(sp)
    66d8:	0f812a03          	lw	s4,248(sp)
    66dc:	10c12083          	lw	ra,268(sp)
    66e0:	10412483          	lw	s1,260(sp)
    66e4:	0fc12983          	lw	s3,252(sp)
    66e8:	11010113          	addi	sp,sp,272
    66ec:	00008067          	ret

000066f0 <translate_x_mesh4>:
    66f0:	f3010113          	addi	sp,sp,-208
    66f4:	0d212023          	sw	s2,192(sp)
    66f8:	00050913          	mv	s2,a0
    66fc:	07010513          	addi	a0,sp,112
    6700:	0c112623          	sw	ra,204(sp)
    6704:	bacfe0ef          	jal	4ab0 <translation_x_matrix4>
    6708:	00092783          	lw	a5,0(s2)
    670c:	0cf05e63          	blez	a5,67e8 <translate_x_mesh4+0xf8>
    6710:	0c812423          	sw	s0,200(sp)
    6714:	0c912223          	sw	s1,196(sp)
    6718:	0b312e23          	sw	s3,188(sp)
    671c:	00890413          	addi	s0,s2,8
    6720:	00000493          	li	s1,0
    6724:	0b010993          	addi	s3,sp,176
    6728:	00842703          	lw	a4,8(s0)
    672c:	00c42783          	lw	a5,12(s0)
    6730:	00042603          	lw	a2,0(s0)
    6734:	00442683          	lw	a3,4(s0)
    6738:	04e12c23          	sw	a4,88(sp)
    673c:	04f12e23          	sw	a5,92(sp)
    6740:	04c12823          	sw	a2,80(sp)
    6744:	04d12a23          	sw	a3,84(sp)
    6748:	07010793          	addi	a5,sp,112
    674c:	01010713          	addi	a4,sp,16
    6750:	0007a803          	lw	a6,0(a5)
    6754:	0047a583          	lw	a1,4(a5)
    6758:	0087a603          	lw	a2,8(a5)
    675c:	00c7a683          	lw	a3,12(a5)
    6760:	01072023          	sw	a6,0(a4)
    6764:	00b72223          	sw	a1,4(a4)
    6768:	00c72423          	sw	a2,8(a4)
    676c:	00d72623          	sw	a3,12(a4)
    6770:	01078793          	addi	a5,a5,16
    6774:	01070713          	addi	a4,a4,16
    6778:	fd379ce3          	bne	a5,s3,6750 <translate_x_mesh4+0x60>
    677c:	05012783          	lw	a5,80(sp)
    6780:	00010613          	mv	a2,sp
    6784:	01010593          	addi	a1,sp,16
    6788:	00f12023          	sw	a5,0(sp)
    678c:	05412783          	lw	a5,84(sp)
    6790:	06010513          	addi	a0,sp,96
    6794:	00148493          	addi	s1,s1,1
    6798:	00f12223          	sw	a5,4(sp)
    679c:	05812783          	lw	a5,88(sp)
    67a0:	01040413          	addi	s0,s0,16
    67a4:	00f12423          	sw	a5,8(sp)
    67a8:	05c12783          	lw	a5,92(sp)
    67ac:	00f12623          	sw	a5,12(sp)
    67b0:	dd8fe0ef          	jal	4d88 <mat4_mul_vec4>
    67b4:	06012703          	lw	a4,96(sp)
    67b8:	00092783          	lw	a5,0(s2)
    67bc:	fee42823          	sw	a4,-16(s0)
    67c0:	06412703          	lw	a4,100(sp)
    67c4:	fee42a23          	sw	a4,-12(s0)
    67c8:	06812703          	lw	a4,104(sp)
    67cc:	fee42c23          	sw	a4,-8(s0)
    67d0:	06c12703          	lw	a4,108(sp)
    67d4:	fee42e23          	sw	a4,-4(s0)
    67d8:	f4f4c8e3          	blt	s1,a5,6728 <translate_x_mesh4+0x38>
    67dc:	0c812403          	lw	s0,200(sp)
    67e0:	0c412483          	lw	s1,196(sp)
    67e4:	0bc12983          	lw	s3,188(sp)
    67e8:	0cc12083          	lw	ra,204(sp)
    67ec:	0c012903          	lw	s2,192(sp)
    67f0:	0d010113          	addi	sp,sp,208
    67f4:	00008067          	ret

000067f8 <translate_y_mesh4>:
    67f8:	f3010113          	addi	sp,sp,-208
    67fc:	0d212023          	sw	s2,192(sp)
    6800:	00050913          	mv	s2,a0
    6804:	07010513          	addi	a0,sp,112
    6808:	0c112623          	sw	ra,204(sp)
    680c:	af4fe0ef          	jal	4b00 <translation_y_matrix4>
    6810:	00092783          	lw	a5,0(s2)
    6814:	0cf05e63          	blez	a5,68f0 <translate_y_mesh4+0xf8>
    6818:	0c812423          	sw	s0,200(sp)
    681c:	0c912223          	sw	s1,196(sp)
    6820:	0b312e23          	sw	s3,188(sp)
    6824:	00890413          	addi	s0,s2,8
    6828:	00000493          	li	s1,0
    682c:	0b010993          	addi	s3,sp,176
    6830:	00842703          	lw	a4,8(s0)
    6834:	00c42783          	lw	a5,12(s0)
    6838:	00042603          	lw	a2,0(s0)
    683c:	00442683          	lw	a3,4(s0)
    6840:	04e12c23          	sw	a4,88(sp)
    6844:	04f12e23          	sw	a5,92(sp)
    6848:	04c12823          	sw	a2,80(sp)
    684c:	04d12a23          	sw	a3,84(sp)
    6850:	07010793          	addi	a5,sp,112
    6854:	01010713          	addi	a4,sp,16
    6858:	0007a803          	lw	a6,0(a5)
    685c:	0047a583          	lw	a1,4(a5)
    6860:	0087a603          	lw	a2,8(a5)
    6864:	00c7a683          	lw	a3,12(a5)
    6868:	01072023          	sw	a6,0(a4)
    686c:	00b72223          	sw	a1,4(a4)
    6870:	00c72423          	sw	a2,8(a4)
    6874:	00d72623          	sw	a3,12(a4)
    6878:	01078793          	addi	a5,a5,16
    687c:	01070713          	addi	a4,a4,16
    6880:	fd379ce3          	bne	a5,s3,6858 <translate_y_mesh4+0x60>
    6884:	05012783          	lw	a5,80(sp)
    6888:	00010613          	mv	a2,sp
    688c:	01010593          	addi	a1,sp,16
    6890:	00f12023          	sw	a5,0(sp)
    6894:	05412783          	lw	a5,84(sp)
    6898:	06010513          	addi	a0,sp,96
    689c:	00148493          	addi	s1,s1,1
    68a0:	00f12223          	sw	a5,4(sp)
    68a4:	05812783          	lw	a5,88(sp)
    68a8:	01040413          	addi	s0,s0,16
    68ac:	00f12423          	sw	a5,8(sp)
    68b0:	05c12783          	lw	a5,92(sp)
    68b4:	00f12623          	sw	a5,12(sp)
    68b8:	cd0fe0ef          	jal	4d88 <mat4_mul_vec4>
    68bc:	06012703          	lw	a4,96(sp)
    68c0:	00092783          	lw	a5,0(s2)
    68c4:	fee42823          	sw	a4,-16(s0)
    68c8:	06412703          	lw	a4,100(sp)
    68cc:	fee42a23          	sw	a4,-12(s0)
    68d0:	06812703          	lw	a4,104(sp)
    68d4:	fee42c23          	sw	a4,-8(s0)
    68d8:	06c12703          	lw	a4,108(sp)
    68dc:	fee42e23          	sw	a4,-4(s0)
    68e0:	f4f4c8e3          	blt	s1,a5,6830 <translate_y_mesh4+0x38>
    68e4:	0c812403          	lw	s0,200(sp)
    68e8:	0c412483          	lw	s1,196(sp)
    68ec:	0bc12983          	lw	s3,188(sp)
    68f0:	0cc12083          	lw	ra,204(sp)
    68f4:	0c012903          	lw	s2,192(sp)
    68f8:	0d010113          	addi	sp,sp,208
    68fc:	00008067          	ret

00006900 <translate_z_mesh4>:
    6900:	f3010113          	addi	sp,sp,-208
    6904:	0d212023          	sw	s2,192(sp)
    6908:	00050913          	mv	s2,a0
    690c:	07010513          	addi	a0,sp,112
    6910:	0c112623          	sw	ra,204(sp)
    6914:	a3cfe0ef          	jal	4b50 <translation_z_matrix4>
    6918:	00092783          	lw	a5,0(s2)
    691c:	0cf05e63          	blez	a5,69f8 <translate_z_mesh4+0xf8>
    6920:	0c812423          	sw	s0,200(sp)
    6924:	0c912223          	sw	s1,196(sp)
    6928:	0b312e23          	sw	s3,188(sp)
    692c:	00890413          	addi	s0,s2,8
    6930:	00000493          	li	s1,0
    6934:	0b010993          	addi	s3,sp,176
    6938:	00842703          	lw	a4,8(s0)
    693c:	00c42783          	lw	a5,12(s0)
    6940:	00042603          	lw	a2,0(s0)
    6944:	00442683          	lw	a3,4(s0)
    6948:	04e12c23          	sw	a4,88(sp)
    694c:	04f12e23          	sw	a5,92(sp)
    6950:	04c12823          	sw	a2,80(sp)
    6954:	04d12a23          	sw	a3,84(sp)
    6958:	07010793          	addi	a5,sp,112
    695c:	01010713          	addi	a4,sp,16
    6960:	0007a803          	lw	a6,0(a5)
    6964:	0047a583          	lw	a1,4(a5)
    6968:	0087a603          	lw	a2,8(a5)
    696c:	00c7a683          	lw	a3,12(a5)
    6970:	01072023          	sw	a6,0(a4)
    6974:	00b72223          	sw	a1,4(a4)
    6978:	00c72423          	sw	a2,8(a4)
    697c:	00d72623          	sw	a3,12(a4)
    6980:	01078793          	addi	a5,a5,16
    6984:	01070713          	addi	a4,a4,16
    6988:	fd379ce3          	bne	a5,s3,6960 <translate_z_mesh4+0x60>
    698c:	05012783          	lw	a5,80(sp)
    6990:	00010613          	mv	a2,sp
    6994:	01010593          	addi	a1,sp,16
    6998:	00f12023          	sw	a5,0(sp)
    699c:	05412783          	lw	a5,84(sp)
    69a0:	06010513          	addi	a0,sp,96
    69a4:	00148493          	addi	s1,s1,1
    69a8:	00f12223          	sw	a5,4(sp)
    69ac:	05812783          	lw	a5,88(sp)
    69b0:	01040413          	addi	s0,s0,16
    69b4:	00f12423          	sw	a5,8(sp)
    69b8:	05c12783          	lw	a5,92(sp)
    69bc:	00f12623          	sw	a5,12(sp)
    69c0:	bc8fe0ef          	jal	4d88 <mat4_mul_vec4>
    69c4:	06012703          	lw	a4,96(sp)
    69c8:	00092783          	lw	a5,0(s2)
    69cc:	fee42823          	sw	a4,-16(s0)
    69d0:	06412703          	lw	a4,100(sp)
    69d4:	fee42a23          	sw	a4,-12(s0)
    69d8:	06812703          	lw	a4,104(sp)
    69dc:	fee42c23          	sw	a4,-8(s0)
    69e0:	06c12703          	lw	a4,108(sp)
    69e4:	fee42e23          	sw	a4,-4(s0)
    69e8:	f4f4c8e3          	blt	s1,a5,6938 <translate_z_mesh4+0x38>
    69ec:	0c812403          	lw	s0,200(sp)
    69f0:	0c412483          	lw	s1,196(sp)
    69f4:	0bc12983          	lw	s3,188(sp)
    69f8:	0cc12083          	lw	ra,204(sp)
    69fc:	0c012903          	lw	s2,192(sp)
    6a00:	0d010113          	addi	sp,sp,208
    6a04:	00008067          	ret

00006a08 <mesh4_perspective_mesh3>:
    6a08:	dc010113          	addi	sp,sp,-576
    6a0c:	23312623          	sw	s3,556(sp)
    6a10:	fffff2b7          	lui	t0,0xfffff
    6a14:	000019b7          	lui	s3,0x1
    6a18:	22812c23          	sw	s0,568(sp)
    6a1c:	23412423          	sw	s4,552(sp)
    6a20:	23512223          	sw	s5,548(sp)
    6a24:	23612023          	sw	s6,544(sp)
    6a28:	22112e23          	sw	ra,572(sp)
    6a2c:	22912a23          	sw	s1,564(sp)
    6a30:	23212823          	sw	s2,560(sp)
    6a34:	21712e23          	sw	s7,540(sp)
    6a38:	21812c23          	sw	s8,536(sp)
    6a3c:	21912a23          	sw	s9,532(sp)
    6a40:	fffff7b7          	lui	a5,0xfffff
    6a44:	00510133          	add	sp,sp,t0
    6a48:	20098713          	addi	a4,s3,512 # 1200 <clear_pbuffer+0x8>
    6a4c:	00f70733          	add	a4,a4,a5
    6a50:	0005aa03          	lw	s4,0(a1)
    6a54:	01010793          	addi	a5,sp,16
    6a58:	00f707b3          	add	a5,a4,a5
    6a5c:	00050a93          	mv	s5,a0
    6a60:	e8878513          	addi	a0,a5,-376 # ffffee88 <_stack_end+0xffe613ec>
    6a64:	0045ab03          	lw	s6,4(a1)
    6a68:	00f12223          	sw	a5,4(sp)
    6a6c:	00058413          	mv	s0,a1
    6a70:	d3cfe0ef          	jal	4fac <perspective_matrix>
    6a74:	17405a63          	blez	s4,6be8 <mesh4_perspective_mesh3+0x1e0>
    6a78:	fffff937          	lui	s2,0xfffff
    6a7c:	ed090913          	addi	s2,s2,-304 # ffffeed0 <_stack_end+0xffe61434>
    6a80:	20098613          	addi	a2,s3,512
    6a84:	01010593          	addi	a1,sp,16
    6a88:	01260633          	add	a2,a2,s2
    6a8c:	00b60933          	add	s2,a2,a1
    6a90:	00412603          	lw	a2,4(sp)
    6a94:	00098693          	mv	a3,s3
    6a98:	fffff737          	lui	a4,0xfffff
    6a9c:	e0070713          	addi	a4,a4,-512 # ffffee00 <_stack_end+0xffe61364>
    6aa0:	e7860c93          	addi	s9,a2,-392
    6aa4:	ec860b93          	addi	s7,a2,-312
    6aa8:	20068613          	addi	a2,a3,512
    6aac:	00e60633          	add	a2,a2,a4
    6ab0:	00b60733          	add	a4,a2,a1
    6ab4:	fffff7b7          	lui	a5,0xfffff
    6ab8:	e1078793          	addi	a5,a5,-496 # ffffee10 <_stack_end+0xffe61374>
    6abc:	00e12423          	sw	a4,8(sp)
    6ac0:	20068713          	addi	a4,a3,512
    6ac4:	00f70733          	add	a4,a4,a5
    6ac8:	00b707b3          	add	a5,a4,a1
    6acc:	00f12623          	sw	a5,12(sp)
    6ad0:	00412783          	lw	a5,4(sp)
    6ad4:	00840493          	addi	s1,s0,8
    6ad8:	00000993          	li	s3,0
    6adc:	e5c78c13          	addi	s8,a5,-420
    6ae0:	00412583          	lw	a1,4(sp)
    6ae4:	0084a703          	lw	a4,8(s1)
    6ae8:	00c4a783          	lw	a5,12(s1)
    6aec:	0004a603          	lw	a2,0(s1)
    6af0:	0044a683          	lw	a3,4(s1)
    6af4:	e6e5a823          	sw	a4,-400(a1)
    6af8:	e6f5aa23          	sw	a5,-396(a1)
    6afc:	e6c5a423          	sw	a2,-408(a1)
    6b00:	e6d5a623          	sw	a3,-404(a1)
    6b04:	e8858793          	addi	a5,a1,-376
    6b08:	e1058713          	addi	a4,a1,-496
    6b0c:	0007a503          	lw	a0,0(a5)
    6b10:	0047a583          	lw	a1,4(a5)
    6b14:	0087a603          	lw	a2,8(a5)
    6b18:	00c7a683          	lw	a3,12(a5)
    6b1c:	00a72023          	sw	a0,0(a4)
    6b20:	00b72223          	sw	a1,4(a4)
    6b24:	00c72423          	sw	a2,8(a4)
    6b28:	00d72623          	sw	a3,12(a4)
    6b2c:	01078793          	addi	a5,a5,16
    6b30:	01070713          	addi	a4,a4,16
    6b34:	fd779ce3          	bne	a5,s7,6b0c <mesh4_perspective_mesh3+0x104>
    6b38:	00412783          	lw	a5,4(sp)
    6b3c:	00412883          	lw	a7,4(sp)
    6b40:	00812603          	lw	a2,8(sp)
    6b44:	e687a803          	lw	a6,-408(a5)
    6b48:	e6c7a683          	lw	a3,-404(a5)
    6b4c:	e707a703          	lw	a4,-400(a5)
    6b50:	00c12583          	lw	a1,12(sp)
    6b54:	e747a783          	lw	a5,-396(a5)
    6b58:	e108a023          	sw	a6,-512(a7)
    6b5c:	00412803          	lw	a6,4(sp)
    6b60:	000c8513          	mv	a0,s9
    6b64:	00198993          	addi	s3,s3,1
    6b68:	e0d82223          	sw	a3,-508(a6)
    6b6c:	00412683          	lw	a3,4(sp)
    6b70:	01048493          	addi	s1,s1,16
    6b74:	00c90913          	addi	s2,s2,12
    6b78:	e0e6a423          	sw	a4,-504(a3)
    6b7c:	00412703          	lw	a4,4(sp)
    6b80:	e0f72623          	sw	a5,-500(a4)
    6b84:	a04fe0ef          	jal	4d88 <mat4_mul_vec4>
    6b88:	00412783          	lw	a5,4(sp)
    6b8c:	00412803          	lw	a6,4(sp)
    6b90:	00812583          	lw	a1,8(sp)
    6b94:	e787a603          	lw	a2,-392(a5)
    6b98:	e7c7a683          	lw	a3,-388(a5)
    6b9c:	e807a703          	lw	a4,-384(a5)
    6ba0:	e847a783          	lw	a5,-380(a5)
    6ba4:	e0c82023          	sw	a2,-512(a6)
    6ba8:	00412603          	lw	a2,4(sp)
    6bac:	000c0513          	mv	a0,s8
    6bb0:	e0d62223          	sw	a3,-508(a2)
    6bb4:	00412683          	lw	a3,4(sp)
    6bb8:	e0e6a423          	sw	a4,-504(a3)
    6bbc:	00412703          	lw	a4,4(sp)
    6bc0:	e0f72623          	sw	a5,-500(a4)
    6bc4:	a8cfd0ef          	jal	3e50 <vec4_to_vec3>
    6bc8:	00412783          	lw	a5,4(sp)
    6bcc:	e5c7a683          	lw	a3,-420(a5)
    6bd0:	e607a703          	lw	a4,-416(a5)
    6bd4:	e647a783          	lw	a5,-412(a5)
    6bd8:	fed92a23          	sw	a3,-12(s2)
    6bdc:	fee92c23          	sw	a4,-8(s2)
    6be0:	fef92e23          	sw	a5,-4(s2)
    6be4:	ef3a1ee3          	bne	s4,s3,6ae0 <mesh4_perspective_mesh3+0xd8>
    6be8:	07605c63          	blez	s6,6c60 <mesh4_perspective_mesh3+0x258>
    6bec:	fffff7b7          	lui	a5,0xfffff
    6bf0:	00001737          	lui	a4,0x1
    6bf4:	38078793          	addi	a5,a5,896 # fffff380 <_stack_end+0xffe618e4>
    6bf8:	20070713          	addi	a4,a4,512 # 1200 <clear_pbuffer+0x8>
    6bfc:	00f70733          	add	a4,a4,a5
    6c00:	64840593          	addi	a1,s0,1608
    6c04:	005b1e93          	slli	t4,s6,0x5
    6c08:	01010793          	addi	a5,sp,16
    6c0c:	00f707b3          	add	a5,a4,a5
    6c10:	01d58eb3          	add	t4,a1,t4
    6c14:	0005ae03          	lw	t3,0(a1)
    6c18:	0045a303          	lw	t1,4(a1)
    6c1c:	0085a883          	lw	a7,8(a1)
    6c20:	00c5a803          	lw	a6,12(a1)
    6c24:	0105a503          	lw	a0,16(a1)
    6c28:	0145a603          	lw	a2,20(a1)
    6c2c:	0185a683          	lw	a3,24(a1)
    6c30:	01c5a703          	lw	a4,28(a1)
    6c34:	01c7a023          	sw	t3,0(a5)
    6c38:	0067a223          	sw	t1,4(a5)
    6c3c:	0117a423          	sw	a7,8(a5)
    6c40:	0107a623          	sw	a6,12(a5)
    6c44:	00a7a823          	sw	a0,16(a5)
    6c48:	00c7aa23          	sw	a2,20(a5)
    6c4c:	00d7ac23          	sw	a3,24(a5)
    6c50:	00e7ae23          	sw	a4,28(a5)
    6c54:	02058593          	addi	a1,a1,32
    6c58:	02078793          	addi	a5,a5,32
    6c5c:	fbd59ce3          	bne	a1,t4,6c14 <mesh4_perspective_mesh3+0x20c>
    6c60:	00001737          	lui	a4,0x1
    6c64:	fffff7b7          	lui	a5,0xfffff
    6c68:	20070713          	addi	a4,a4,512 # 1200 <clear_pbuffer+0x8>
    6c6c:	00f70733          	add	a4,a4,a5
    6c70:	01010793          	addi	a5,sp,16
    6c74:	00f707b3          	add	a5,a4,a5
    6c78:	00f12223          	sw	a5,4(sp)
    6c7c:	00412703          	lw	a4,4(sp)
    6c80:	000016b7          	lui	a3,0x1
    6c84:	ec878793          	addi	a5,a5,-312 # ffffeec8 <_stack_end+0xffe6142c>
    6c88:	13068693          	addi	a3,a3,304 # 1130 <set_pbuffer+0x94>
    6c8c:	ed472423          	sw	s4,-312(a4)
    6c90:	ed672623          	sw	s6,-308(a4)
    6c94:	00d786b3          	add	a3,a5,a3
    6c98:	000a8713          	mv	a4,s5
    6c9c:	0007a803          	lw	a6,0(a5)
    6ca0:	0047a503          	lw	a0,4(a5)
    6ca4:	0087a583          	lw	a1,8(a5)
    6ca8:	00c7a603          	lw	a2,12(a5)
    6cac:	01072023          	sw	a6,0(a4)
    6cb0:	00a72223          	sw	a0,4(a4)
    6cb4:	00b72423          	sw	a1,8(a4)
    6cb8:	00c72623          	sw	a2,12(a4)
    6cbc:	01078793          	addi	a5,a5,16
    6cc0:	01070713          	addi	a4,a4,16
    6cc4:	fcd79ce3          	bne	a5,a3,6c9c <mesh4_perspective_mesh3+0x294>
    6cc8:	0007a683          	lw	a3,0(a5)
    6ccc:	0047a783          	lw	a5,4(a5)
    6cd0:	000012b7          	lui	t0,0x1
    6cd4:	00d72023          	sw	a3,0(a4)
    6cd8:	00f72223          	sw	a5,4(a4)
    6cdc:	00510133          	add	sp,sp,t0
    6ce0:	23c12083          	lw	ra,572(sp)
    6ce4:	000a8513          	mv	a0,s5
    6ce8:	23812403          	lw	s0,568(sp)
    6cec:	23412483          	lw	s1,564(sp)
    6cf0:	23012903          	lw	s2,560(sp)
    6cf4:	22c12983          	lw	s3,556(sp)
    6cf8:	22812a03          	lw	s4,552(sp)
    6cfc:	22412a83          	lw	s5,548(sp)
    6d00:	22012b03          	lw	s6,544(sp)
    6d04:	21c12b83          	lw	s7,540(sp)
    6d08:	21812c03          	lw	s8,536(sp)
    6d0c:	21412c83          	lw	s9,532(sp)
    6d10:	24010113          	addi	sp,sp,576
    6d14:	00008067          	ret

00006d18 <__subsf3>:
    6d18:	800007b7          	lui	a5,0x80000
    6d1c:	00f5c5b3          	xor	a1,a1,a5

00006d20 <__addsf3>:
    6d20:	80000337          	lui	t1,0x80000
    6d24:	00b543b3          	xor	t2,a0,a1
    6d28:	00657733          	and	a4,a0,t1
    6d2c:	00151613          	slli	a2,a0,0x1
    6d30:	00159693          	slli	a3,a1,0x1
    6d34:	00d67863          	bgeu	a2,a3,6d44 <__addsf3+0x24>
    6d38:	0065f733          	and	a4,a1,t1
    6d3c:	00159613          	slli	a2,a1,0x1
    6d40:	00151693          	slli	a3,a0,0x1
    6d44:	ff0007b7          	lui	a5,0xff000
    6d48:	18f67463          	bgeu	a2,a5,6ed0 <infnan>
    6d4c:	18f6f263          	bgeu	a3,a5,6ed0 <infnan>
    6d50:	14d60263          	beq	a2,a3,6e94 <equal>
    6d54:	00761513          	slli	a0,a2,0x7
    6d58:	00769593          	slli	a1,a3,0x7
    6d5c:	01865613          	srli	a2,a2,0x18
    6d60:	0186d693          	srli	a3,a3,0x18
    6d64:	10060463          	beqz	a2,6e6c <both_zero_denormal>
    6d68:	40d602b3          	sub	t0,a2,a3
    6d6c:	01a2b793          	sltiu	a5,t0,26
    6d70:	10078863          	beqz	a5,6e80 <return_greater>
    6d74:	10068663          	beqz	a3,6e80 <return_greater>
    6d78:	fff60613          	addi	a2,a2,-1
    6d7c:	00656533          	or	a0,a0,t1
    6d80:	0065e5b3          	or	a1,a1,t1

00006d84 <sum>:
    6d84:	0055d7b3          	srl	a5,a1,t0
    6d88:	00128293          	addi	t0,t0,1 # 1001 <set_displays+0x35>
    6d8c:	405002b3          	neg	t0,t0
    6d90:	005595b3          	sll	a1,a1,t0
    6d94:	0403c863          	bltz	t2,6de4 <diff_sign>
    6d98:	00f50533          	add	a0,a0,a5

00006d9c <pos_or_zero>:
    6d9c:	00f57c63          	bgeu	a0,a5,6db4 <adjust>
    6da0:	00155513          	srli	a0,a0,0x1
    6da4:	00656533          	or	a0,a0,t1
    6da8:	00160613          	addi	a2,a2,1
    6dac:	0fe00793          	li	a5,254
    6db0:	10f65c63          	bge	a2,a5,6ec8 <inf>

00006db4 <adjust>:
    6db4:	0015d593          	srli	a1,a1,0x1
    6db8:	01851693          	slli	a3,a0,0x18
    6dbc:	00b6e6b3          	or	a3,a3,a1
    6dc0:	00855513          	srli	a0,a0,0x8

00006dc4 <rounding>:
    6dc4:	0066e863          	bltu	a3,t1,6dd4 <exp_sign_and_exit>
    6dc8:	00150513          	addi	a0,a0,1
    6dcc:	00669463          	bne	a3,t1,6dd4 <exp_sign_and_exit>
    6dd0:	ffe57513          	andi	a0,a0,-2

00006dd4 <exp_sign_and_exit>:
    6dd4:	01761613          	slli	a2,a2,0x17
    6dd8:	00c50533          	add	a0,a0,a2

00006ddc <sign_and_exit>:
    6ddc:	00e56533          	or	a0,a0,a4

00006de0 <exit>:
    6de0:	00008067          	ret

00006de4 <diff_sign>:
    6de4:	00b036b3          	snez	a3,a1
    6de8:	00d7e7b3          	or	a5,a5,a3
    6dec:	40f50533          	sub	a0,a0,a5
    6df0:	fc0542e3          	bltz	a0,6db4 <adjust>

00006df4 <num_canc>:
    6df4:	00151513          	slli	a0,a0,0x1
    6df8:	00060793          	mv	a5,a2
    6dfc:	fff60613          	addi	a2,a2,-1
    6e00:	06078263          	beqz	a5,6e64 <signed_zero>
    6e04:	fa6578e3          	bgeu	a0,t1,6db4 <adjust>
    6e08:	000807b7          	lui	a5,0x80
    6e0c:	00f57663          	bgeu	a0,a5,6e18 <num_canc+0x24>
    6e10:	00c51513          	slli	a0,a0,0xc
    6e14:	ff460613          	addi	a2,a2,-12
    6e18:	00679793          	slli	a5,a5,0x6
    6e1c:	00f57663          	bgeu	a0,a5,6e28 <num_canc+0x34>
    6e20:	00651513          	slli	a0,a0,0x6
    6e24:	ffa60613          	addi	a2,a2,-6
    6e28:	00379793          	slli	a5,a5,0x3
    6e2c:	00f57663          	bgeu	a0,a5,6e38 <num_canc+0x44>
    6e30:	00351513          	slli	a0,a0,0x3
    6e34:	ffd60613          	addi	a2,a2,-3
    6e38:	00179793          	slli	a5,a5,0x1
    6e3c:	00f57663          	bgeu	a0,a5,6e48 <num_canc+0x54>
    6e40:	00151513          	slli	a0,a0,0x1
    6e44:	fff60613          	addi	a2,a2,-1
    6e48:	00179793          	slli	a5,a5,0x1
    6e4c:	00f57663          	bgeu	a0,a5,6e58 <num_canc+0x64>
    6e50:	00151513          	slli	a0,a0,0x1
    6e54:	fff60613          	addi	a2,a2,-1
    6e58:	00755513          	srli	a0,a0,0x7
    6e5c:	fff60613          	addi	a2,a2,-1
    6e60:	f6065ae3          	bgez	a2,6dd4 <exp_sign_and_exit>

00006e64 <signed_zero>:
    6e64:	00070513          	mv	a0,a4
    6e68:	00008067          	ret

00006e6c <both_zero_denormal>:
    6e6c:	0063c3b3          	xor	t2,t2,t1
    6e70:	00777533          	and	a0,a4,t2

00006e74 <zero_mantissa>:
    6e74:	01f55513          	srli	a0,a0,0x1f
    6e78:	01f51513          	slli	a0,a0,0x1f
    6e7c:	00008067          	ret

00006e80 <return_greater>:
    6e80:	00855513          	srli	a0,a0,0x8
    6e84:	01761613          	slli	a2,a2,0x17
    6e88:	00c56533          	or	a0,a0,a2
    6e8c:	00e56533          	or	a0,a0,a4
    6e90:	00008067          	ret

00006e94 <equal>:
    6e94:	00b50663          	beq	a0,a1,6ea0 <equal_samesign>

00006e98 <zero>:
    6e98:	00000513          	li	a0,0
    6e9c:	00008067          	ret

00006ea0 <equal_samesign>:
    6ea0:	00c7f7b3          	and	a5,a5,a2
    6ea4:	fc0788e3          	beqz	a5,6e74 <zero_mantissa>

00006ea8 <equal_nodenormal>:
    6ea8:	01865613          	srli	a2,a2,0x18
    6eac:	0fe63793          	sltiu	a5,a2,254
    6eb0:	00078863          	beqz	a5,6ec0 <equal_nodenormal+0x18>
    6eb4:	008007b7          	lui	a5,0x800
    6eb8:	00f50533          	add	a0,a0,a5
    6ebc:	00008067          	ret
    6ec0:	01f79793          	slli	a5,a5,0x1f
    6ec4:	00a7f6b3          	and	a3,a5,a0

00006ec8 <inf>:
    6ec8:	7f800537          	lui	a0,0x7f800
    6ecc:	f11ff06f          	j	6ddc <sign_and_exit>

00006ed0 <infnan>:
    6ed0:	00c7e663          	bltu	a5,a2,6edc <produce_nan>
    6ed4:	fed61ae3          	bne	a2,a3,6ec8 <inf>

00006ed8 <inf_inf>:
    6ed8:	f0b504e3          	beq	a0,a1,6de0 <exit>

00006edc <produce_nan>:
    6edc:	7fc00537          	lui	a0,0x7fc00
    6ee0:	00008067          	ret

00006ee4 <__divsf3>:
    6ee4:	800002b7          	lui	t0,0x80000
    6ee8:	0ff00793          	li	a5,255
    6eec:	01755613          	srli	a2,a0,0x17
    6ef0:	00f67633          	and	a2,a2,a5
    6ef4:	0175d693          	srli	a3,a1,0x17
    6ef8:	00f6f6b3          	and	a3,a3,a5
    6efc:	10f60e63          	beq	a2,a5,7018 <inf_nan>
    6f00:	10f68c63          	beq	a3,a5,7018 <inf_nan>
    6f04:	10060063          	beqz	a2,7004 <zero_denormal>
    6f08:	0e068e63          	beqz	a3,7004 <zero_denormal>

00006f0c <normal_case>:
    6f0c:	40d60633          	sub	a2,a2,a3
    6f10:	00b543b3          	xor	t2,a0,a1
    6f14:	00951513          	slli	a0,a0,0x9
    6f18:	00959593          	slli	a1,a1,0x9
    6f1c:	0a058663          	beqz	a1,6fc8 <pow_2>
    6f20:	100006b7          	lui	a3,0x10000
    6f24:	00455513          	srli	a0,a0,0x4
    6f28:	0045d593          	srli	a1,a1,0x4
    6f2c:	00d5e5b3          	or	a1,a1,a3
    6f30:	00a6e6b3          	or	a3,a3,a0
    6f34:	0053f533          	and	a0,t2,t0
    6f38:	00b6a7b3          	slt	a5,a3,a1
    6f3c:	00f696b3          	sll	a3,a3,a5
    6f40:	07e60613          	addi	a2,a2,126
    6f44:	40f60633          	sub	a2,a2,a5
    6f48:	008007b7          	lui	a5,0x800

00006f4c <div_loop_start>:
    6f4c:	00b6c663          	blt	a3,a1,6f58 <div_loop_start+0xc>
    6f50:	40b686b3          	sub	a3,a3,a1
    6f54:	00f56533          	or	a0,a0,a5
    6f58:	0015d713          	srli	a4,a1,0x1
    6f5c:	00e6c863          	blt	a3,a4,6f6c <div_loop_start+0x20>
    6f60:	0017d313          	srli	t1,a5,0x1
    6f64:	40e686b3          	sub	a3,a3,a4
    6f68:	00656533          	or	a0,a0,t1
    6f6c:	0025d713          	srli	a4,a1,0x2
    6f70:	00e6c863          	blt	a3,a4,6f80 <div_loop_start+0x34>
    6f74:	0027d313          	srli	t1,a5,0x2
    6f78:	40e686b3          	sub	a3,a3,a4
    6f7c:	00656533          	or	a0,a0,t1
    6f80:	0035d713          	srli	a4,a1,0x3
    6f84:	00e6c863          	blt	a3,a4,6f94 <div_loop_start+0x48>
    6f88:	0037d313          	srli	t1,a5,0x3
    6f8c:	40e686b3          	sub	a3,a3,a4
    6f90:	00656533          	or	a0,a0,t1
    6f94:	00469693          	slli	a3,a3,0x4
    6f98:	00068663          	beqz	a3,6fa4 <div_loop_exit>
    6f9c:	0047d793          	srli	a5,a5,0x4
    6fa0:	fa0796e3          	bnez	a5,6f4c <div_loop_start>

00006fa4 <div_loop_exit>:
    6fa4:	0fe00393          	li	t2,254
    6fa8:	04767663          	bgeu	a2,t2,6ff4 <und_ov_flow>
    6fac:	01761613          	slli	a2,a2,0x17
    6fb0:	00c50533          	add	a0,a0,a2
    6fb4:	00b6e863          	bltu	a3,a1,6fc4 <exit>
    6fb8:	00150513          	addi	a0,a0,1 # 7fc00001 <_stack_end+0x7fa62565>
    6fbc:	00b69463          	bne	a3,a1,6fc4 <exit>
    6fc0:	ffe57513          	andi	a0,a0,-2

00006fc4 <exit>:
    6fc4:	00008067          	ret

00006fc8 <pow_2>:
    6fc8:	0053f3b3          	and	t2,t2,t0
    6fcc:	00955793          	srli	a5,a0,0x9
    6fd0:	00f3e533          	or	a0,t2,a5
    6fd4:	07f60613          	addi	a2,a2,127
    6fd8:	00c05c63          	blez	a2,6ff0 <pre_und_ov_flow>
    6fdc:	0ff00693          	li	a3,255
    6fe0:	00d65863          	bge	a2,a3,6ff0 <pre_und_ov_flow>
    6fe4:	01761613          	slli	a2,a2,0x17
    6fe8:	00c56533          	or	a0,a0,a2
    6fec:	00008067          	ret

00006ff0 <pre_und_ov_flow>:
    6ff0:	fff60613          	addi	a2,a2,-1

00006ff4 <und_ov_flow>:
    6ff4:	04c04263          	bgtz	a2,7038 <ovf>
    6ff8:	01f55513          	srli	a0,a0,0x1f
    6ffc:	01f51513          	slli	a0,a0,0x1f
    7000:	00008067          	ret

00007004 <zero_denormal>:
    7004:	02061863          	bnez	a2,7034 <inf>
    7008:	04068063          	beqz	a3,7048 <nan>

0000700c <zero>:
    700c:	00b54533          	xor	a0,a0,a1
    7010:	00557533          	and	a0,a0,t0
    7014:	00008067          	ret

00007018 <inf_nan>:
    7018:	01879793          	slli	a5,a5,0x18
    701c:	00151613          	slli	a2,a0,0x1
    7020:	02c7e463          	bltu	a5,a2,7048 <nan>
    7024:	00159693          	slli	a3,a1,0x1
    7028:	02d7e063          	bltu	a5,a3,7048 <nan>
    702c:	00d60e63          	beq	a2,a3,7048 <nan>
    7030:	fcf68ee3          	beq	a3,a5,700c <zero>

00007034 <inf>:
    7034:	00b54533          	xor	a0,a0,a1

00007038 <ovf>:
    7038:	00557533          	and	a0,a0,t0
    703c:	7f8002b7          	lui	t0,0x7f800
    7040:	00556533          	or	a0,a0,t0
    7044:	00008067          	ret

00007048 <nan>:
    7048:	7fc00537          	lui	a0,0x7fc00
    704c:	00008067          	ret

00007050 <__eqsf2>:
    7050:	ff0007b7          	lui	a5,0xff000
    7054:	00151613          	slli	a2,a0,0x1
    7058:	00c7ec63          	bltu	a5,a2,7070 <end>
    705c:	00159693          	slli	a3,a1,0x1
    7060:	00d7e863          	bltu	a5,a3,7070 <end>
    7064:	00d667b3          	or	a5,a2,a3
    7068:	00078463          	beqz	a5,7070 <end>
    706c:	00b547b3          	xor	a5,a0,a1

00007070 <end>:
    7070:	00f03533          	snez	a0,a5
    7074:	00008067          	ret

00007078 <__fixsfsi>:
    7078:	80000737          	lui	a4,0x80000
    707c:	41f55793          	srai	a5,a0,0x1f
    7080:	00151513          	slli	a0,a0,0x1
    7084:	01855593          	srli	a1,a0,0x18
    7088:	f8158593          	addi	a1,a1,-127
    708c:	0205ca63          	bltz	a1,70c0 <undflow>
    7090:	40b005b3          	neg	a1,a1
    7094:	01f58593          	addi	a1,a1,31
    7098:	00b05e63          	blez	a1,70b4 <ovflow>
    709c:	00751513          	slli	a0,a0,0x7
    70a0:	00e56533          	or	a0,a0,a4
    70a4:	00b55533          	srl	a0,a0,a1
    70a8:	00f54533          	xor	a0,a0,a5
    70ac:	40f50533          	sub	a0,a0,a5
    70b0:	00008067          	ret

000070b4 <ovflow>:
    70b4:	fff70513          	addi	a0,a4,-1 # 7fffffff <_stack_end+0x7fe62563>
    70b8:	00f54533          	xor	a0,a0,a5
    70bc:	00008067          	ret

000070c0 <undflow>:
    70c0:	00000513          	li	a0,0
    70c4:	00008067          	ret

000070c8 <__floatsisf>:
    70c8:	04050a63          	beqz	a0,711c <exit>
    70cc:	41f55793          	srai	a5,a0,0x1f
    70d0:	00f54533          	xor	a0,a0,a5
    70d4:	40f50533          	sub	a0,a0,a5
    70d8:	01f79793          	slli	a5,a5,0x1f
    70dc:	09d00593          	li	a1,157
    70e0:	00054863          	bltz	a0,70f0 <__floatsisf+0x28>
    70e4:	fff58593          	addi	a1,a1,-1
    70e8:	00151513          	slli	a0,a0,0x1
    70ec:	fea04ce3          	bgtz	a0,70e4 <__floatsisf+0x1c>
    70f0:	01851613          	slli	a2,a0,0x18
    70f4:	00855513          	srli	a0,a0,0x8
    70f8:	00065c63          	bgez	a2,7110 <__floatsisf+0x48>
    70fc:	00150513          	addi	a0,a0,1 # 7fc00001 <_stack_end+0x7fa62565>
    7100:	00161613          	slli	a2,a2,0x1
    7104:	00163613          	seqz	a2,a2
    7108:	fff64613          	not	a2,a2
    710c:	00c57533          	and	a0,a0,a2
    7110:	01759593          	slli	a1,a1,0x17
    7114:	00b50533          	add	a0,a0,a1
    7118:	00f56533          	or	a0,a0,a5

0000711c <exit>:
    711c:	00008067          	ret

00007120 <__gesf2>:
    7120:	ff0006b7          	lui	a3,0xff000
    7124:	00151613          	slli	a2,a0,0x1
    7128:	02c6ea63          	bltu	a3,a2,715c <ret_m1>
    712c:	00159613          	slli	a2,a1,0x1
    7130:	02c6e663          	bltu	a3,a2,715c <ret_m1>
    7134:	00b566b3          	or	a3,a0,a1
    7138:	00169693          	slli	a3,a3,0x1
    713c:	00068c63          	beqz	a3,7154 <ret_0>
    7140:	00b576b3          	and	a3,a0,a1
    7144:	0206c063          	bltz	a3,7164 <nn>
    7148:	00b52533          	slt	a0,a0,a1
    714c:	01f51513          	slli	a0,a0,0x1f
    7150:	00008067          	ret

00007154 <ret_0>:
    7154:	00000513          	li	a0,0
    7158:	00008067          	ret

0000715c <ret_m1>:
    715c:	fff00513          	li	a0,-1
    7160:	00008067          	ret

00007164 <nn>:
    7164:	00a5a533          	slt	a0,a1,a0
    7168:	01f51513          	slli	a0,a0,0x1f
    716c:	00008067          	ret

00007170 <__gtsf2>:
    7170:	ff0006b7          	lui	a3,0xff000
    7174:	00151613          	slli	a2,a0,0x1
    7178:	02c6e463          	bltu	a3,a2,71a0 <ret_0>
    717c:	00159613          	slli	a2,a1,0x1
    7180:	02c6e063          	bltu	a3,a2,71a0 <ret_0>
    7184:	00b566b3          	or	a3,a0,a1
    7188:	00169693          	slli	a3,a3,0x1
    718c:	00068a63          	beqz	a3,71a0 <ret_0>
    7190:	00b576b3          	and	a3,a0,a1
    7194:	0006ca63          	bltz	a3,71a8 <nn>
    7198:	00a5a533          	slt	a0,a1,a0
    719c:	00008067          	ret

000071a0 <ret_0>:
    71a0:	00000513          	li	a0,0
    71a4:	00008067          	ret

000071a8 <nn>:
    71a8:	00b52533          	slt	a0,a0,a1
    71ac:	00008067          	ret

000071b0 <__ltsf2>:
    71b0:	ff0006b7          	lui	a3,0xff000
    71b4:	00151613          	slli	a2,a0,0x1
    71b8:	02c6e663          	bltu	a3,a2,71e4 <ret_0>
    71bc:	00159613          	slli	a2,a1,0x1
    71c0:	02c6e263          	bltu	a3,a2,71e4 <ret_0>
    71c4:	00b566b3          	or	a3,a0,a1
    71c8:	00169693          	slli	a3,a3,0x1
    71cc:	00068c63          	beqz	a3,71e4 <ret_0>
    71d0:	00b576b3          	and	a3,a0,a1
    71d4:	0006cc63          	bltz	a3,71ec <nn>
    71d8:	00b52533          	slt	a0,a0,a1
    71dc:	01f51513          	slli	a0,a0,0x1f
    71e0:	00008067          	ret

000071e4 <ret_0>:
    71e4:	00000513          	li	a0,0
    71e8:	00008067          	ret

000071ec <nn>:
    71ec:	00a5a533          	slt	a0,a1,a0
    71f0:	01f51513          	slli	a0,a0,0x1f
    71f4:	00008067          	ret

000071f8 <__mulsf3>:
    71f8:	80000737          	lui	a4,0x80000
    71fc:	00b547b3          	xor	a5,a0,a1
    7200:	00f77733          	and	a4,a4,a5
    7204:	0ff00793          	li	a5,255
    7208:	01755613          	srli	a2,a0,0x17
    720c:	00f67633          	and	a2,a2,a5
    7210:	0175d693          	srli	a3,a1,0x17
    7214:	00f6f6b3          	and	a3,a3,a5
    7218:	08f60c63          	beq	a2,a5,72b0 <inf_nan>
    721c:	08f68a63          	beq	a3,a5,72b0 <inf_nan>
    7220:	08060463          	beqz	a2,72a8 <append_zero>
    7224:	08068263          	beqz	a3,72a8 <append_zero>

00007228 <normal_case>:
    7228:	00d60633          	add	a2,a2,a3
    722c:	00951513          	slli	a0,a0,0x9
    7230:	00959593          	slli	a1,a1,0x9
    7234:	080006b7          	lui	a3,0x8000
    7238:	00555513          	srli	a0,a0,0x5
    723c:	0055d593          	srli	a1,a1,0x5
    7240:	00d56533          	or	a0,a0,a3
    7244:	00d5e5b3          	or	a1,a1,a3
    7248:	02b506b3          	mul	a3,a0,a1
    724c:	02b535b3          	mulhu	a1,a0,a1
    7250:	00070513          	mv	a0,a4
    7254:	008007b7          	lui	a5,0x800
    7258:	00f5fc63          	bgeu	a1,a5,7270 <normal_case+0x48>
    725c:	00159593          	slli	a1,a1,0x1
    7260:	01f6d793          	srli	a5,a3,0x1f
    7264:	00f5e5b3          	or	a1,a1,a5
    7268:	00169693          	slli	a3,a3,0x1
    726c:	fff60613          	addi	a2,a2,-1
    7270:	00b56533          	or	a0,a0,a1
    7274:	f8160613          	addi	a2,a2,-127
    7278:	0fe00793          	li	a5,254
    727c:	02f67263          	bgeu	a2,a5,72a0 <und_ov_flow>
    7280:	80000737          	lui	a4,0x80000
    7284:	01761613          	slli	a2,a2,0x17
    7288:	00c50533          	add	a0,a0,a2
    728c:	00e6e863          	bltu	a3,a4,729c <exit>
    7290:	00150513          	addi	a0,a0,1
    7294:	00e69463          	bne	a3,a4,729c <exit>
    7298:	ffe57513          	andi	a0,a0,-2

0000729c <exit>:
    729c:	00008067          	ret

000072a0 <und_ov_flow>:
    72a0:	02c04a63          	bgtz	a2,72d4 <inf>
    72a4:	0040006f          	j	72a8 <append_zero>

000072a8 <append_zero>:
    72a8:	00070513          	mv	a0,a4
    72ac:	00008067          	ret

000072b0 <inf_nan>:
    72b0:	01861613          	slli	a2,a2,0x18
    72b4:	01869693          	slli	a3,a3,0x18
    72b8:	02060463          	beqz	a2,72e0 <nan>
    72bc:	02068263          	beqz	a3,72e0 <nan>
    72c0:	01879793          	slli	a5,a5,0x18
    72c4:	00151693          	slli	a3,a0,0x1
    72c8:	00d7ec63          	bltu	a5,a3,72e0 <nan>
    72cc:	00159693          	slli	a3,a1,0x1
    72d0:	00d7e863          	bltu	a5,a3,72e0 <nan>

000072d4 <inf>:
    72d4:	7f800537          	lui	a0,0x7f800
    72d8:	00e56533          	or	a0,a0,a4
    72dc:	00008067          	ret

000072e0 <nan>:
    72e0:	7fc00537          	lui	a0,0x7fc00
    72e4:	00008067          	ret

Disassembly of section .data:

000072e8 <welcome_msg>:
    72e8:	3d3d                	.insn	2, 0x3d3d
    72ea:	3d3d                	.insn	2, 0x3d3d
    72ec:	3d3d                	.insn	2, 0x3d3d
    72ee:	3d3d                	.insn	2, 0x3d3d
    72f0:	3d3d                	.insn	2, 0x3d3d
    72f2:	3d3d                	.insn	2, 0x3d3d
    72f4:	3d3d                	.insn	2, 0x3d3d
    72f6:	3d3d                	.insn	2, 0x3d3d
    72f8:	3d3d                	.insn	2, 0x3d3d
    72fa:	3d3d                	.insn	2, 0x3d3d
    72fc:	3d3d                	.insn	2, 0x3d3d
    72fe:	3d3d                	.insn	2, 0x3d3d
    7300:	3d3d                	.insn	2, 0x3d3d
    7302:	3d3d                	.insn	2, 0x3d3d
    7304:	3d3d                	.insn	2, 0x3d3d
    7306:	3d3d                	.insn	2, 0x3d3d
    7308:	3d3d                	.insn	2, 0x3d3d
    730a:	3d3d                	.insn	2, 0x3d3d
    730c:	3d3d                	.insn	2, 0x3d3d
    730e:	3d3d                	.insn	2, 0x3d3d
    7310:	3d3d                	.insn	2, 0x3d3d
    7312:	3d3d                	.insn	2, 0x3d3d
    7314:	3d3d                	.insn	2, 0x3d3d
    7316:	3d3d                	.insn	2, 0x3d3d
    7318:	3d0a                	.insn	2, 0x3d0a
    731a:	3d3d                	.insn	2, 0x3d3d
    731c:	3d3d                	.insn	2, 0x3d3d
    731e:	5220                	.insn	2, 0x5220
    7320:	5349                	.insn	2, 0x5349
    7322:	20562d43          	.insn	4, 0x20562d43
    7326:	6f42                	.insn	2, 0x6f42
    7328:	552d746f          	jal	s0,de87a <CSWTCH.6+0x414a6>
    732c:	2070                	.insn	2, 0x2070
    732e:	7250                	.insn	2, 0x7250
    7330:	7365636f          	jal	t1,5da66 <pbuffer+0xb6c2>
    7334:	6f4e2073          	csrs	0x6f4,t3
    7338:	6f432077          	.insn	4, 0x6f432077
    733c:	706d                	.insn	2, 0x706d
    733e:	656c                	.insn	2, 0x656c
    7340:	6574                	.insn	2, 0x6574
    7342:	3d20                	.insn	2, 0x3d20
    7344:	3d3d                	.insn	2, 0x3d3d
    7346:	3d3d                	.insn	2, 0x3d3d
    7348:	0a3d                	.insn	2, 0x0a3d
    734a:	3d3d                	.insn	2, 0x3d3d
    734c:	3d3d                	.insn	2, 0x3d3d
    734e:	3d3d                	.insn	2, 0x3d3d
    7350:	3d3d                	.insn	2, 0x3d3d
    7352:	3d3d                	.insn	2, 0x3d3d
    7354:	3d3d                	.insn	2, 0x3d3d
    7356:	3d3d                	.insn	2, 0x3d3d
    7358:	3d3d                	.insn	2, 0x3d3d
    735a:	3d3d                	.insn	2, 0x3d3d
    735c:	3d3d                	.insn	2, 0x3d3d
    735e:	3d3d                	.insn	2, 0x3d3d
    7360:	3d3d                	.insn	2, 0x3d3d
    7362:	3d3d                	.insn	2, 0x3d3d
    7364:	3d3d                	.insn	2, 0x3d3d
    7366:	3d3d                	.insn	2, 0x3d3d
    7368:	3d3d                	.insn	2, 0x3d3d
    736a:	3d3d                	.insn	2, 0x3d3d
    736c:	3d3d                	.insn	2, 0x3d3d
    736e:	3d3d                	.insn	2, 0x3d3d
    7370:	3d3d                	.insn	2, 0x3d3d
    7372:	3d3d                	.insn	2, 0x3d3d
    7374:	3d3d                	.insn	2, 0x3d3d
    7376:	3d3d                	.insn	2, 0x3d3d
    7378:	3d3d                	.insn	2, 0x3d3d
    737a:	000a                	.insn	2, 0x000a

0000737c <draw_a>:
    737c:	00ff 0000   	.insn	10, 0x00ff000000ff000000ff
    7384:	 

00007380 <draw_b>:
    7380:	00ff 0000   	.insn	10, 0x00ff000000ff000000ff
    7388:	 

00007384 <draw_g>:
    7384:	00ff 0000   	.insn	10, 0x0001000000ff000000ff
    738c:	 

00007388 <draw_r>:
    7388:	00ff 0000   	.insn	10, 0x000100000001000000ff
    7390:	 

0000738c <running>:
    738c:	0001                	.insn	2, 0x0001
	...

00007390 <rasterize_enable>:
    7390:	0001                	.insn	2, 0x0001
	...

00007394 <z_far>:
    7394:	4000                	.insn	2, 0x4000
    7396:	461c                	.insn	2, 0x461c

00007398 <z_near>:
    7398:	0000                	.insn	2, 0x
    739a:	3f80                	.insn	2, 0x3f80

0000739c <aspect_ratio>:
    739c:	3faaaaab          	.insn	4, 0x3faaaaab

000073a0 <fov>:
    73a0:	0000                	.insn	2, 0x
    73a2:	42b4                	.insn	2, 0x42b4

Disassembly of section .rodata:

0009d3bc <CSWTCH.6-0x18>:
   9d3bc:	1024                	.insn	2, 0x1024
   9d3be:	0000                	.insn	2, 0x
   9d3c0:	1030                	.insn	2, 0x1030
   9d3c2:	0000                	.insn	2, 0x
   9d3c4:	103c                	.insn	2, 0x103c
   9d3c6:	0000                	.insn	2, 0x
   9d3c8:	1048                	.insn	2, 0x1048
   9d3ca:	0000                	.insn	2, 0x
   9d3cc:	1018                	.insn	2, 0x1018
   9d3ce:	0000                	.insn	2, 0x
   9d3d0:	100c                	.insn	2, 0x100c
	...

0009d3d4 <CSWTCH.6>:
   9d3d4:	00c0                	.insn	2, 0x00c0
   9d3d6:	0000                	.insn	2, 0x
   9d3d8:	00f9                	.insn	2, 0x00f9
   9d3da:	0000                	.insn	2, 0x
   9d3dc:	00a4                	.insn	2, 0x00a4
   9d3de:	0000                	.insn	2, 0x
   9d3e0:	00b0                	.insn	2, 0x00b0
   9d3e2:	0000                	.insn	2, 0x
   9d3e4:	0099                	.insn	2, 0x0099
   9d3e6:	0000                	.insn	2, 0x
   9d3e8:	0092                	.insn	2, 0x0092
   9d3ea:	0000                	.insn	2, 0x
   9d3ec:	0082                	.insn	2, 0x0082
   9d3ee:	0000                	.insn	2, 0x
   9d3f0:	00f8                	.insn	2, 0x00f8
   9d3f2:	0000                	.insn	2, 0x
   9d3f4:	0080                	.insn	2, 0x0080
   9d3f6:	0000                	.insn	2, 0x
   9d3f8:	0098                	.insn	2, 0x0098
   9d3fa:	0000                	.insn	2, 0x
   9d3fc:	0000                	.insn	2, 0x
   9d3fe:	0000                	.insn	2, 0x
   9d400:	0001                	.insn	2, 0x0001
   9d402:	0000                	.insn	2, 0x
   9d404:	0002                	.insn	2, 0x0002
   9d406:	0000                	.insn	2, 0x
   9d408:	0000                	.insn	2, 0x
   9d40a:	0000                	.insn	2, 0x
   9d40c:	cccd                	.insn	2, 0xcccd
   9d40e:	3f0c                	.insn	2, 0x3f0c
   9d410:	3d71                	.insn	2, 0x3d71
   9d412:	3e8a                	.insn	2, 0x3e8a
   9d414:	5c29                	.insn	2, 0x5c29
   9d416:	00003d8f          	.insn	4, 0x3d8f
   9d41a:	3f80                	.insn	2, 0x3f80
   9d41c:	0000                	.insn	2, 0x
   9d41e:	0000                	.insn	2, 0x
   9d420:	0002                	.insn	2, 0x0002
   9d422:	0000                	.insn	2, 0x
   9d424:	00000003          	lb	zero,0(zero) # 0 <_isr_handler>
   9d428:	0000                	.insn	2, 0x
   9d42a:	0000                	.insn	2, 0x
   9d42c:	6666                	.insn	2, 0x6666
   9d42e:	3ee6                	.insn	2, 0x3ee6
   9d430:	0000                	.insn	2, 0x
   9d432:	3e80                	.insn	2, 0x3e80
   9d434:	3d75c28f          	.insn	4, 0x3d75c28f
   9d438:	0000                	.insn	2, 0x
   9d43a:	3f80                	.insn	2, 0x3f80
   9d43c:	0004                	.insn	2, 0x0004
   9d43e:	0000                	.insn	2, 0x
   9d440:	0005                	.insn	2, 0x0005
   9d442:	0000                	.insn	2, 0x
   9d444:	0006                	.insn	2, 0x0006
   9d446:	0000                	.insn	2, 0x
   9d448:	0000                	.insn	2, 0x
   9d44a:	0000                	.insn	2, 0x
   9d44c:	999a                	.insn	2, 0x999a
   9d44e:	3f19                	.insn	2, 0x3f19
   9d450:	999a                	.insn	2, 0x999a
   9d452:	3e99                	.insn	2, 0x3e99
   9d454:	cccd                	.insn	2, 0xcccd
   9d456:	3dcc                	.insn	2, 0x3dcc
   9d458:	0000                	.insn	2, 0x
   9d45a:	3f80                	.insn	2, 0x3f80
   9d45c:	0004                	.insn	2, 0x0004
   9d45e:	0000                	.insn	2, 0x
   9d460:	0006                	.insn	2, 0x0006
   9d462:	0000                	.insn	2, 0x
   9d464:	00000007          	.insn	4, 0x0007
   9d468:	0000                	.insn	2, 0x
   9d46a:	0000                	.insn	2, 0x
   9d46c:	0000                	.insn	2, 0x
   9d46e:	3f00                	.insn	2, 0x3f00
   9d470:	cccd                	.insn	2, 0xcccd
   9d472:	3e4c                	.insn	2, 0x3e4c
   9d474:	cccd                	.insn	2, 0xcccd
   9d476:	3d4c                	.insn	2, 0x3d4c
   9d478:	0000                	.insn	2, 0x
   9d47a:	3f80                	.insn	2, 0x3f80
   9d47c:	0000                	.insn	2, 0x
   9d47e:	0000                	.insn	2, 0x
   9d480:	0004                	.insn	2, 0x0004
   9d482:	0000                	.insn	2, 0x
   9d484:	00000007          	.insn	4, 0x0007
   9d488:	0000                	.insn	2, 0x
   9d48a:	0000                	.insn	2, 0x
   9d48c:	7ae1                	.insn	2, 0x7ae1
   9d48e:	3f14                	.insn	2, 0x3f14
   9d490:	7ae1                	.insn	2, 0x7ae1
   9d492:	3e94                	.insn	2, 0x3e94
   9d494:	d70a                	.insn	2, 0xd70a
   9d496:	00003da3          	.insn	4, 0x3da3
   9d49a:	3f80                	.insn	2, 0x3f80
   9d49c:	0000                	.insn	2, 0x
   9d49e:	0000                	.insn	2, 0x
   9d4a0:	00000007          	.insn	4, 0x0007
   9d4a4:	00000003          	lb	zero,0(zero) # 0 <_isr_handler>
   9d4a8:	0000                	.insn	2, 0x
   9d4aa:	0000                	.insn	2, 0x
   9d4ac:	3ef5c28f          	.insn	4, 0x3ef5c28f
   9d4b0:	47ae                	.insn	2, 0x47ae
   9d4b2:	3e61                	.insn	2, 0x3e61
   9d4b4:	3d75c28f          	.insn	4, 0x3d75c28f
   9d4b8:	0000                	.insn	2, 0x
   9d4ba:	3f80                	.insn	2, 0x3f80
   9d4bc:	0001                	.insn	2, 0x0001
   9d4be:	0000                	.insn	2, 0x
   9d4c0:	0005                	.insn	2, 0x0005
   9d4c2:	0000                	.insn	2, 0x
   9d4c4:	0006                	.insn	2, 0x0006
   9d4c6:	0000                	.insn	2, 0x
   9d4c8:	0000                	.insn	2, 0x
   9d4ca:	0000                	.insn	2, 0x
   9d4cc:	1eb8                	.insn	2, 0x1eb8
   9d4ce:	3f05                	.insn	2, 0x3f05
   9d4d0:	1eb8                	.insn	2, 0x1eb8
   9d4d2:	3e85                	.insn	2, 0x3e85
   9d4d4:	5c29                	.insn	2, 0x5c29
   9d4d6:	00003d8f          	.insn	4, 0x3d8f
   9d4da:	3f80                	.insn	2, 0x3f80
   9d4dc:	0001                	.insn	2, 0x0001
   9d4de:	0000                	.insn	2, 0x
   9d4e0:	0006                	.insn	2, 0x0006
   9d4e2:	0000                	.insn	2, 0x
   9d4e4:	0002                	.insn	2, 0x0002
	...
   9d4ee:	3f00                	.insn	2, 0x3f00
   9d4f0:	3e75c28f          	.insn	4, 0x3e75c28f
   9d4f4:	3d75c28f          	.insn	4, 0x3d75c28f
   9d4f8:	0000                	.insn	2, 0x
   9d4fa:	3f80                	.insn	2, 0x3f80
   9d4fc:	00000003          	lb	zero,0(zero) # 0 <_isr_handler>
   9d500:	0002                	.insn	2, 0x0002
   9d502:	0000                	.insn	2, 0x
   9d504:	0006                	.insn	2, 0x0006
   9d506:	0000                	.insn	2, 0x
   9d508:	0000                	.insn	2, 0x
   9d50a:	0000                	.insn	2, 0x
   9d50c:	3ef0a3d7          	.insn	4, 0x3ef0a3d7
   9d510:	851f 3e6b 5c29      	.insn	6, 0x5c293e6b851f
   9d516:	00003d8f          	.insn	4, 0x3d8f
   9d51a:	3f80                	.insn	2, 0x3f80
   9d51c:	00000003          	lb	zero,0(zero) # 0 <_isr_handler>
   9d520:	0006                	.insn	2, 0x0006
   9d522:	0000                	.insn	2, 0x
   9d524:	00000007          	.insn	4, 0x0007
   9d528:	0000                	.insn	2, 0x
   9d52a:	0000                	.insn	2, 0x
   9d52c:	ae14                	.insn	2, 0xae14
   9d52e:	1eb83f07          	.insn	4, 0x1eb83f07
   9d532:	3e85                	.insn	2, 0x3e85
   9d534:	d70a                	.insn	2, 0xd70a
   9d536:	00003da3          	.insn	4, 0x3da3
   9d53a:	3f80                	.insn	2, 0x3f80
   9d53c:	0000                	.insn	2, 0x
   9d53e:	0000                	.insn	2, 0x
   9d540:	0001                	.insn	2, 0x0001
   9d542:	0000                	.insn	2, 0x
   9d544:	0005                	.insn	2, 0x0005
   9d546:	0000                	.insn	2, 0x
   9d548:	0000                	.insn	2, 0x
   9d54a:	0000                	.insn	2, 0x
   9d54c:	1eb8                	.insn	2, 0x1eb8
   9d54e:	3e05                	.insn	2, 0x3e05
   9d550:	cccd                	.insn	2, 0xcccd
   9d552:	3f0c                	.insn	2, 0x3f0c
   9d554:	1eb8                	.insn	2, 0x1eb8
   9d556:	3e05                	.insn	2, 0x3e05
   9d558:	0000                	.insn	2, 0x
   9d55a:	3f80                	.insn	2, 0x3f80
   9d55c:	0000                	.insn	2, 0x
   9d55e:	0000                	.insn	2, 0x
   9d560:	0005                	.insn	2, 0x0005
   9d562:	0000                	.insn	2, 0x
   9d564:	0004                	.insn	2, 0x0004
   9d566:	0000                	.insn	2, 0x
   9d568:	0000                	.insn	2, 0x
   9d56a:	0000                	.insn	2, 0x
   9d56c:	cccd                	.insn	2, 0xcccd
   9d56e:	3dcc                	.insn	2, 0x3dcc
   9d570:	6666                	.insn	2, 0x6666
   9d572:	3ee6                	.insn	2, 0x3ee6
   9d574:	cccd                	.insn	2, 0xcccd
   9d576:	3dcc                	.insn	2, 0x3dcc
   9d578:	0000                	.insn	2, 0x
   9d57a:	3f80                	.insn	2, 0x3f80
   9d57c:	00000003          	lb	zero,0(zero) # 0 <_isr_handler>
   9d580:	0002                	.insn	2, 0x0002
   9d582:	0000                	.insn	2, 0x
   9d584:	0006                	.insn	2, 0x0006
   9d586:	0000                	.insn	2, 0x
   9d588:	0000                	.insn	2, 0x
   9d58a:	0000                	.insn	2, 0x
   9d58c:	ae14                	.insn	2, 0xae14
   9d58e:	1eb83f07          	.insn	4, 0x1eb83f07
   9d592:	3e85                	.insn	2, 0x3e85
   9d594:	d70a                	.insn	2, 0xd70a
   9d596:	00003da3          	.insn	4, 0x3da3
   9d59a:	3f80                	.insn	2, 0x3f80
   9d59c:	00000003          	lb	zero,0(zero) # 0 <_isr_handler>
   9d5a0:	0006                	.insn	2, 0x0006
   9d5a2:	0000                	.insn	2, 0x
   9d5a4:	00000007          	.insn	4, 0x0007
   9d5a8:	0000                	.insn	2, 0x
   9d5aa:	0000                	.insn	2, 0x
   9d5ac:	3ef0a3d7          	.insn	4, 0x3ef0a3d7
   9d5b0:	851f 3e6b 5c29      	.insn	6, 0x5c293e6b851f
   9d5b6:	00003d8f          	.insn	4, 0x3d8f
   9d5ba:	3f80                	.insn	2, 0x3f80
   9d5bc:	0000                	.insn	2, 0x
   9d5be:	0000                	.insn	2, 0x
   9d5c0:	0001                	.insn	2, 0x0001
   9d5c2:	0000                	.insn	2, 0x
   9d5c4:	0005                	.insn	2, 0x0005
   9d5c6:	0000                	.insn	2, 0x
   9d5c8:	0000                	.insn	2, 0x
   9d5ca:	0000                	.insn	2, 0x
   9d5cc:	ae14                	.insn	2, 0xae14
   9d5ce:	1eb83f07          	.insn	4, 0x1eb83f07
   9d5d2:	3e85                	.insn	2, 0x3e85
   9d5d4:	d70a                	.insn	2, 0xd70a
   9d5d6:	00003da3          	.insn	4, 0x3da3
   9d5da:	3f80                	.insn	2, 0x3f80
   9d5dc:	0000                	.insn	2, 0x
   9d5de:	0000                	.insn	2, 0x
   9d5e0:	0005                	.insn	2, 0x0005
   9d5e2:	0000                	.insn	2, 0x
   9d5e4:	0004                	.insn	2, 0x0004
   9d5e6:	0000                	.insn	2, 0x
   9d5e8:	0000                	.insn	2, 0x
   9d5ea:	0000                	.insn	2, 0x
   9d5ec:	3ef0a3d7          	.insn	4, 0x3ef0a3d7
   9d5f0:	851f 3e6b 5c29      	.insn	6, 0x5c293e6b851f
   9d5f6:	00003d8f          	.insn	4, 0x3d8f
   9d5fa:	3f80                	.insn	2, 0x3f80
   9d5fc:	0000                	.insn	2, 0x
   9d5fe:	0000                	.insn	2, 0x
   9d600:	0001                	.insn	2, 0x0001
   9d602:	0000                	.insn	2, 0x
   9d604:	0002                	.insn	2, 0x0002
   9d606:	0000                	.insn	2, 0x
   9d608:	0000                	.insn	2, 0x
   9d60a:	0000                	.insn	2, 0x
   9d60c:	8f5c                	.insn	2, 0x8f5c
   9d60e:	3f42                	.insn	2, 0x3f42
   9d610:	8f5c                	.insn	2, 0x8f5c
   9d612:	3f02                	.insn	2, 0x3f02
   9d614:	0000                	.insn	2, 0x
   9d616:	3e80                	.insn	2, 0x3e80
   9d618:	0000                	.insn	2, 0x
   9d61a:	3f80                	.insn	2, 0x3f80
   9d61c:	0000                	.insn	2, 0x
   9d61e:	0000                	.insn	2, 0x
   9d620:	0002                	.insn	2, 0x0002
   9d622:	0000                	.insn	2, 0x
   9d624:	00000003          	lb	zero,0(zero) # 0 <_isr_handler>
   9d628:	0000                	.insn	2, 0x
   9d62a:	0000                	.insn	2, 0x
   9d62c:	51ec                	.insn	2, 0x51ec
   9d62e:	3f38                	.insn	2, 0x3f38
   9d630:	e148                	.insn	2, 0xe148
   9d632:	3efa                	.insn	2, 0x3efa
   9d634:	851f 3e6b 0000      	.insn	6, 0x3e6b851f
   9d63a:	3f80                	.insn	2, 0x3f80
   9d63c:	0004                	.insn	2, 0x0004
   9d63e:	0000                	.insn	2, 0x
   9d640:	0005                	.insn	2, 0x0005
   9d642:	0000                	.insn	2, 0x
   9d644:	0006                	.insn	2, 0x0006
   9d646:	0000                	.insn	2, 0x
   9d648:	0000                	.insn	2, 0x
   9d64a:	0000                	.insn	2, 0x
   9d64c:	ae14                	.insn	2, 0xae14
   9d64e:	1eb83f47          	.insn	4, 0x1eb83f47
   9d652:	3f05                	.insn	2, 0x3f05
   9d654:	3d71                	.insn	2, 0x3d71
   9d656:	3e8a                	.insn	2, 0x3e8a
   9d658:	0000                	.insn	2, 0x
   9d65a:	3f80                	.insn	2, 0x3f80
   9d65c:	0004                	.insn	2, 0x0004
   9d65e:	0000                	.insn	2, 0x
   9d660:	0006                	.insn	2, 0x0006
   9d662:	0000                	.insn	2, 0x
   9d664:	00000007          	.insn	4, 0x0007
   9d668:	0000                	.insn	2, 0x
   9d66a:	0000                	.insn	2, 0x
   9d66c:	cccd                	.insn	2, 0xcccd
   9d66e:	3f4c                	.insn	2, 0x3f4c
   9d670:	ae14                	.insn	2, 0xae14
   9d672:	5c293f07          	.insn	4, 0x5c293f07
   9d676:	00003e8f          	.insn	4, 0x3e8f
   9d67a:	3f80                	.insn	2, 0x3f80
   9d67c:	0000                	.insn	2, 0x
   9d67e:	0000                	.insn	2, 0x
   9d680:	0004                	.insn	2, 0x0004
   9d682:	0000                	.insn	2, 0x
   9d684:	00000007          	.insn	4, 0x0007
   9d688:	0000                	.insn	2, 0x
   9d68a:	0000                	.insn	2, 0x
   9d68c:	70a4                	.insn	2, 0x70a4
   9d68e:	3f3d                	.insn	2, 0x3f3d
   9d690:	0000                	.insn	2, 0x
   9d692:	3f00                	.insn	2, 0x3f00
   9d694:	3e75c28f          	.insn	4, 0x3e75c28f
   9d698:	0000                	.insn	2, 0x
   9d69a:	3f80                	.insn	2, 0x3f80
   9d69c:	0000                	.insn	2, 0x
   9d69e:	0000                	.insn	2, 0x
   9d6a0:	00000007          	.insn	4, 0x0007
   9d6a4:	00000003          	lb	zero,0(zero) # 0 <_isr_handler>
   9d6a8:	0000                	.insn	2, 0x
   9d6aa:	0000                	.insn	2, 0x
   9d6ac:	3f333333          	.insn	4, 0x3f333333
   9d6b0:	3ef5c28f          	.insn	4, 0x3ef5c28f
   9d6b4:	47ae                	.insn	2, 0x47ae
   9d6b6:	3e61                	.insn	2, 0x3e61
   9d6b8:	0000                	.insn	2, 0x
   9d6ba:	3f80                	.insn	2, 0x3f80
   9d6bc:	0001                	.insn	2, 0x0001
   9d6be:	0000                	.insn	2, 0x
   9d6c0:	0005                	.insn	2, 0x0005
   9d6c2:	0000                	.insn	2, 0x
   9d6c4:	0006                	.insn	2, 0x0006
   9d6c6:	0000                	.insn	2, 0x
   9d6c8:	0000                	.insn	2, 0x
   9d6ca:	0000                	.insn	2, 0x
   9d6cc:	1eb8                	.insn	2, 0x1eb8
   9d6ce:	3f45                	.insn	2, 0x3f45
   9d6d0:	8f5c                	.insn	2, 0x8f5c
   9d6d2:	3f02                	.insn	2, 0x3f02
   9d6d4:	1eb8                	.insn	2, 0x1eb8
   9d6d6:	3e85                	.insn	2, 0x3e85
   9d6d8:	0000                	.insn	2, 0x
   9d6da:	3f80                	.insn	2, 0x3f80
   9d6dc:	0001                	.insn	2, 0x0001
   9d6de:	0000                	.insn	2, 0x
   9d6e0:	0006                	.insn	2, 0x0006
   9d6e2:	0000                	.insn	2, 0x
   9d6e4:	0002                	.insn	2, 0x0002
   9d6e6:	0000                	.insn	2, 0x
   9d6e8:	0000                	.insn	2, 0x
   9d6ea:	0000                	.insn	2, 0x
   9d6ec:	3d71                	.insn	2, 0x3d71
   9d6ee:	3f4a                	.insn	2, 0x3f4a
   9d6f0:	3d71                	.insn	2, 0x3d71
   9d6f2:	3f0a                	.insn	2, 0x3f0a
   9d6f4:	7ae1                	.insn	2, 0x7ae1
   9d6f6:	3e94                	.insn	2, 0x3e94
   9d6f8:	0000                	.insn	2, 0x
   9d6fa:	3f80                	.insn	2, 0x3f80
   9d6fc:	00000003          	lb	zero,0(zero) # 0 <_isr_handler>
   9d700:	0002                	.insn	2, 0x0002
   9d702:	0000                	.insn	2, 0x
   9d704:	0006                	.insn	2, 0x0006
   9d706:	0000                	.insn	2, 0x
   9d708:	0000                	.insn	2, 0x
   9d70a:	0000                	.insn	2, 0x
   9d70c:	e148                	.insn	2, 0xe148
   9d70e:	3f3a                	.insn	2, 0x3f3a
   9d710:	e148                	.insn	2, 0xe148
   9d712:	3efa                	.insn	2, 0x3efa
   9d714:	851f 3e6b 0000      	.insn	6, 0x3e6b851f
   9d71a:	3f80                	.insn	2, 0x3f80
   9d71c:	00000003          	lb	zero,0(zero) # 0 <_isr_handler>
   9d720:	0006                	.insn	2, 0x0006
   9d722:	0000                	.insn	2, 0x
   9d724:	00000007          	.insn	4, 0x0007
   9d728:	0000                	.insn	2, 0x
   9d72a:	0000                	.insn	2, 0x
   9d72c:	0000                	.insn	2, 0x
   9d72e:	3f40                	.insn	2, 0x3f40
   9d730:	0000                	.insn	2, 0x
   9d732:	3f00                	.insn	2, 0x3f00
   9d734:	3e75c28f          	.insn	4, 0x3e75c28f
   9d738:	0000                	.insn	2, 0x
   9d73a:	3f80                	.insn	2, 0x3f80
   9d73c:	0000                	.insn	2, 0x
   9d73e:	0000                	.insn	2, 0x
   9d740:	0001                	.insn	2, 0x0001
   9d742:	0000                	.insn	2, 0x
   9d744:	0005                	.insn	2, 0x0005
   9d746:	0000                	.insn	2, 0x
   9d748:	0000                	.insn	2, 0x
   9d74a:	0000                	.insn	2, 0x
   9d74c:	8f5c                	.insn	2, 0x8f5c
   9d74e:	3f42                	.insn	2, 0x3f42
   9d750:	8f5c                	.insn	2, 0x8f5c
   9d752:	3f02                	.insn	2, 0x3f02
   9d754:	0000                	.insn	2, 0x
   9d756:	3e80                	.insn	2, 0x3e80
   9d758:	0000                	.insn	2, 0x
   9d75a:	3f80                	.insn	2, 0x3f80
   9d75c:	0000                	.insn	2, 0x
   9d75e:	0000                	.insn	2, 0x
   9d760:	0005                	.insn	2, 0x0005
   9d762:	0000                	.insn	2, 0x
   9d764:	0004                	.insn	2, 0x0004
   9d766:	0000                	.insn	2, 0x
   9d768:	0000                	.insn	2, 0x
   9d76a:	0000                	.insn	2, 0x
   9d76c:	ae14                	.insn	2, 0xae14
   9d76e:	ae143f47          	.insn	4, 0xae143f47
   9d772:	3d713f07          	.insn	4, 0x3d713f07
   9d776:	3e8a                	.insn	2, 0x3e8a
   9d778:	0000                	.insn	2, 0x
   9d77a:	3f80                	.insn	2, 0x3f80
   9d77c:	0000                	.insn	2, 0x
   9d77e:	0000                	.insn	2, 0x
   9d780:	0001                	.insn	2, 0x0001
   9d782:	0000                	.insn	2, 0x
   9d784:	0002                	.insn	2, 0x0002
	...
   9d78e:	3e80                	.insn	2, 0x3e80
   9d790:	0000                	.insn	2, 0x
   9d792:	3f40                	.insn	2, 0x3f40
   9d794:	0000                	.insn	2, 0x
   9d796:	3e80                	.insn	2, 0x3e80
   9d798:	cccd                	.insn	2, 0xcccd
   9d79a:	3f4c                	.insn	2, 0x3f4c
   9d79c:	0000                	.insn	2, 0x
   9d79e:	0000                	.insn	2, 0x
   9d7a0:	0002                	.insn	2, 0x0002
   9d7a2:	0000                	.insn	2, 0x
   9d7a4:	00000003          	lb	zero,0(zero) # 0 <_isr_handler>
   9d7a8:	0000                	.insn	2, 0x
   9d7aa:	0000                	.insn	2, 0x
   9d7ac:	47ae                	.insn	2, 0x47ae
   9d7ae:	3e61                	.insn	2, 0x3e61
   9d7b0:	3f333333          	.insn	4, 0x3f333333
   9d7b4:	47ae                	.insn	2, 0x47ae
   9d7b6:	3e61                	.insn	2, 0x3e61
   9d7b8:	3f333333          	.insn	4, 0x3f333333
   9d7bc:	0004                	.insn	2, 0x0004
   9d7be:	0000                	.insn	2, 0x
   9d7c0:	0005                	.insn	2, 0x0005
   9d7c2:	0000                	.insn	2, 0x
   9d7c4:	0006                	.insn	2, 0x0006
   9d7c6:	0000                	.insn	2, 0x
   9d7c8:	0000                	.insn	2, 0x
   9d7ca:	0000                	.insn	2, 0x
   9d7cc:	999a                	.insn	2, 0x999a
   9d7ce:	3e99                	.insn	2, 0x3e99
   9d7d0:	cccd                	.insn	2, 0xcccd
   9d7d2:	3f4c                	.insn	2, 0x3f4c
   9d7d4:	999a                	.insn	2, 0x999a
   9d7d6:	3e99                	.insn	2, 0x3e99
   9d7d8:	6666                	.insn	2, 0x6666
   9d7da:	3f66                	.insn	2, 0x3f66
   9d7dc:	0004                	.insn	2, 0x0004
   9d7de:	0000                	.insn	2, 0x
   9d7e0:	0006                	.insn	2, 0x0006
   9d7e2:	0000                	.insn	2, 0x
   9d7e4:	00000007          	.insn	4, 0x0007
   9d7e8:	0000                	.insn	2, 0x
   9d7ea:	0000                	.insn	2, 0x
   9d7ec:	5c29                	.insn	2, 0x5c29
   9d7ee:	ae143e8f          	.insn	4, 0xae143e8f
   9d7f2:	5c293f47          	.insn	4, 0x5c293f47
   9d7f6:	cccd3e8f          	.insn	4, 0xcccd3e8f
   9d7fa:	3f4c                	.insn	2, 0x3f4c
   9d7fc:	0000                	.insn	2, 0x
   9d7fe:	0000                	.insn	2, 0x
   9d800:	0004                	.insn	2, 0x0004
   9d802:	0000                	.insn	2, 0x
   9d804:	00000007          	.insn	4, 0x0007
   9d808:	0000                	.insn	2, 0x
   9d80a:	0000                	.insn	2, 0x
   9d80c:	1eb8                	.insn	2, 0x1eb8
   9d80e:	3e85                	.insn	2, 0x3e85
   9d810:	8f5c                	.insn	2, 0x8f5c
   9d812:	3f42                	.insn	2, 0x3f42
   9d814:	1eb8                	.insn	2, 0x1eb8
   9d816:	3e85                	.insn	2, 0x3e85
   9d818:	999a                	.insn	2, 0x999a
   9d81a:	3f59                	.insn	2, 0x3f59
   9d81c:	0000                	.insn	2, 0x
   9d81e:	0000                	.insn	2, 0x
   9d820:	00000007          	.insn	4, 0x0007
   9d824:	00000003          	lb	zero,0(zero) # 0 <_isr_handler>
   9d828:	0000                	.insn	2, 0x
   9d82a:	0000                	.insn	2, 0x
   9d82c:	3e75c28f          	.insn	4, 0x3e75c28f
   9d830:	51ec                	.insn	2, 0x51ec
   9d832:	3f38                	.insn	2, 0x3f38
   9d834:	3e75c28f          	.insn	4, 0x3e75c28f
   9d838:	0000                	.insn	2, 0x
   9d83a:	3f40                	.insn	2, 0x3f40
   9d83c:	0001                	.insn	2, 0x0001
   9d83e:	0000                	.insn	2, 0x
   9d840:	0005                	.insn	2, 0x0005
   9d842:	0000                	.insn	2, 0x
   9d844:	0006                	.insn	2, 0x0006
   9d846:	0000                	.insn	2, 0x
   9d848:	0000                	.insn	2, 0x
   9d84a:	0000                	.insn	2, 0x
   9d84c:	7ae1                	.insn	2, 0x7ae1
   9d84e:	3e94                	.insn	2, 0x3e94
   9d850:	3d71                	.insn	2, 0x3d71
   9d852:	3f4a                	.insn	2, 0x3f4a
   9d854:	7ae1                	.insn	2, 0x7ae1
   9d856:	3e94                	.insn	2, 0x3e94
   9d858:	47ae                	.insn	2, 0x47ae
   9d85a:	3f61                	.insn	2, 0x3f61
   9d85c:	0001                	.insn	2, 0x0001
   9d85e:	0000                	.insn	2, 0x
   9d860:	0006                	.insn	2, 0x0006
   9d862:	0000                	.insn	2, 0x
   9d864:	0002                	.insn	2, 0x0002
   9d866:	0000                	.insn	2, 0x
   9d868:	0000                	.insn	2, 0x
   9d86a:	0000                	.insn	2, 0x
   9d86c:	3d71                	.insn	2, 0x3d71
   9d86e:	3e8a                	.insn	2, 0x3e8a
   9d870:	1eb8                	.insn	2, 0x1eb8
   9d872:	3f45                	.insn	2, 0x3f45
   9d874:	3d71                	.insn	2, 0x3d71
   9d876:	3e8a                	.insn	2, 0x3e8a
   9d878:	cccd                	.insn	2, 0xcccd
   9d87a:	3f4c                	.insn	2, 0x3f4c
   9d87c:	00000003          	lb	zero,0(zero) # 0 <_isr_handler>
   9d880:	0002                	.insn	2, 0x0002
   9d882:	0000                	.insn	2, 0x
   9d884:	0006                	.insn	2, 0x0006
   9d886:	0000                	.insn	2, 0x
   9d888:	0000                	.insn	2, 0x
   9d88a:	0000                	.insn	2, 0x
   9d88c:	b852                	.insn	2, 0xb852
   9d88e:	3e9e                	.insn	2, 0x3e9e
   9d890:	eb85                	.insn	2, 0xeb85
   9d892:	3f51                	.insn	2, 0x3f51
   9d894:	b852                	.insn	2, 0xb852
   9d896:	3e9e                	.insn	2, 0x3e9e
   9d898:	6666                	.insn	2, 0x6666
   9d89a:	3f66                	.insn	2, 0x3f66
   9d89c:	00000003          	lb	zero,0(zero) # 0 <_isr_handler>
   9d8a0:	0006                	.insn	2, 0x0006
   9d8a2:	0000                	.insn	2, 0x
   9d8a4:	00000007          	.insn	4, 0x0007
   9d8a8:	0000                	.insn	2, 0x
   9d8aa:	0000                	.insn	2, 0x
   9d8ac:	7ae1                	.insn	2, 0x7ae1
   9d8ae:	3e94                	.insn	2, 0x3e94
   9d8b0:	3d71                	.insn	2, 0x3d71
   9d8b2:	3f4a                	.insn	2, 0x3f4a
   9d8b4:	7ae1                	.insn	2, 0x7ae1
   9d8b6:	3e94                	.insn	2, 0x3e94
   9d8b8:	999a                	.insn	2, 0x999a
   9d8ba:	3f59                	.insn	2, 0x3f59
   9d8bc:	0000                	.insn	2, 0x
   9d8be:	0000                	.insn	2, 0x
   9d8c0:	0001                	.insn	2, 0x0001
   9d8c2:	0000                	.insn	2, 0x
   9d8c4:	0005                	.insn	2, 0x0005
   9d8c6:	0000                	.insn	2, 0x
   9d8c8:	0000                	.insn	2, 0x
   9d8ca:	0000                	.insn	2, 0x
   9d8cc:	851f 3e6b e148      	.insn	6, 0xe1483e6b851f
   9d8d2:	3f3a                	.insn	2, 0x3f3a
   9d8d4:	851f 3e6b 3333      	.insn	6, 0x33333e6b851f
   9d8da:	00003f33          	snez	t5,zero
   9d8de:	0000                	.insn	2, 0x
   9d8e0:	0005                	.insn	2, 0x0005
   9d8e2:	0000                	.insn	2, 0x
   9d8e4:	0004                	.insn	2, 0x0004
   9d8e6:	0000                	.insn	2, 0x
   9d8e8:	0000                	.insn	2, 0x
   9d8ea:	0000                	.insn	2, 0x
   9d8ec:	cccd                	.insn	2, 0xcccd
   9d8ee:	3e4c                	.insn	2, 0x3e4c
   9d8f0:	3f333333          	.insn	4, 0x3f333333
   9d8f4:	cccd                	.insn	2, 0xcccd
   9d8f6:	3e4c                	.insn	2, 0x3e4c
   9d8f8:	6666                	.insn	2, 0x6666
   9d8fa:	3f26                	.insn	2, 0x3f26

Disassembly of section .srodata.cst4:

0009d8fc <.srodata.cst4>:
   9d8fc:	0000                	.insn	2, 0x
   9d8fe:	3f00                	.insn	2, 0x3f00
   9d900:	8000                	.insn	2, 0x8000
   9d902:	439f 0000 436f      	.insn	6, 0x436f0000439f
   9d908:	0000                	.insn	2, 0x
   9d90a:	3f80                	.insn	2, 0x3f80
   9d90c:	c5ac                	.insn	2, 0xc5ac
   9d90e:	00003727          	.insn	4, 0x3727
   9d912:	43a0                	.insn	2, 0x43a0
   9d914:	0000                	.insn	2, 0x
   9d916:	4040                	.insn	2, 0x4040
   9d918:	0000                	.insn	2, 0x
   9d91a:	437f 0000 bf80 cccd 	.insn	18, 0x417000003dcccccdbdcccccdbf800000437f
   9d922:	bdcc cccd 3dcc 0000 
   9d92a:	4170 
   9d92c:	0000                	.insn	2, 0x
   9d92e:	41f0                	.insn	2, 0x41f0
   9d930:	0000                	.insn	2, 0x
   9d932:	c2e6                	.insn	2, 0xc2e6
   9d934:	0000                	.insn	2, 0x
   9d936:	c2aa                	.insn	2, 0xc2aa
   9d938:	0000                	.insn	2, 0x
   9d93a:	c170                	.insn	2, 0xc170
   9d93c:	0000                	.insn	2, 0x
   9d93e:	41c8                	.insn	2, 0x41c8
   9d940:	0000                	.insn	2, 0x
   9d942:	4120                	.insn	2, 0x4120
   9d944:	0000                	.insn	2, 0x
   9d946:	c2fa                	.insn	2, 0xc2fa
   9d948:	0000                	.insn	2, 0x
   9d94a:	40a0                	.insn	2, 0x40a0
   9d94c:	0000                	.insn	2, 0x
   9d94e:	c120                	.insn	2, 0xc120
   9d950:	0000                	.insn	2, 0x
   9d952:	c1f0                	.insn	2, 0xc1f0
   9d954:	0000                	.insn	2, 0x
   9d956:	c2c8                	.insn	2, 0xc2c8
   9d958:	0000                	.insn	2, 0x
   9d95a:	4370                	.insn	2, 0x4370
   9d95c:	fa35                	.insn	2, 0xfa35
   9d95e:	3c8e                	.insn	2, 0x3c8e
   9d960:	37bd                	.insn	2, 0x37bd
   9d962:	3586                	.insn	2, 0x3586
   9d964:	40c90fdb          	.insn	4, 0x40c90fdb
   9d968:	0000                	.insn	2, 0x
   9d96a:	4140                	.insn	2, 0x4140
   9d96c:	0000                	.insn	2, 0x
   9d96e:	4260                	.insn	2, 0x4260
   9d970:	0000                	.insn	2, 0x
   9d972:	42b4                	.insn	2, 0x42b4
   9d974:	0000                	.insn	2, 0x
   9d976:	4304                	.insn	2, 0x4304
   9d978:	0000                	.insn	2, 0x
   9d97a:	4336                	.insn	2, 0x4336
   9d97c:	0000                	.insn	2, 0x
   9d97e:	4399                	.insn	2, 0x4399
   9d980:	0000                	.insn	2, 0x
   9d982:	40c0                	.insn	2, 0x40c0
   9d984:	0000                	.insn	2, 0x
   9d986:	41a0                	.insn	2, 0x41a0
   9d988:	0000                	.insn	2, 0x
   9d98a:	4228                	.insn	2, 0x4228
   9d98c:	0000                	.insn	2, 0x
   9d98e:	4290                	.insn	2, 0x4290
   9d990:	0000                	.insn	2, 0x
   9d992:	42dc                	.insn	2, 0x42dc
   9d994:	0000                	.insn	2, 0x
   9d996:	431c                	.insn	2, 0x431c
   9d998:	0000                	.insn	2, 0x
   9d99a:	4352                	.insn	2, 0x4352
   9d99c:	0000                	.insn	2, 0x
   9d99e:	4388                	.insn	2, 0x4388
   9d9a0:	0000                	.insn	2, 0x
   9d9a2:	f2ca43ab          	.insn	4, 0xf2ca43ab
   9d9a6:	f149                	.insn	2, 0xf149
   9d9a8:	f2ca                	.insn	2, 0xf2ca
   9d9aa:	7149                	.insn	2, 0x7149

Disassembly of section .rodata.str1.4:

0009d9ac <.rodata.str1.4>:
   9d9ac:	72617453          	.insn	4, 0x72617453
   9d9b0:	6974                	.insn	2, 0x6974
   9d9b2:	676e                	.insn	2, 0x676e
   9d9b4:	2121                	.insn	2, 0x2121
   9d9b6:	0021                	.insn	2, 0x0021
   9d9b8:	6e49                	.insn	2, 0x6e49
   9d9ba:	6574                	.insn	2, 0x6574
   9d9bc:	7272                	.insn	2, 0x7272
   9d9be:	7075                	.insn	2, 0x7075
   9d9c0:	2074                	.insn	2, 0x2074
   9d9c2:	6564                	.insn	2, 0x6564
   9d9c4:	6574                	.insn	2, 0x6574
   9d9c6:	64657463          	bgeu	a0,t1,9e00e <CSWTCH.6+0xc3a>
   9d9ca:	2021                	.insn	2, 0x2021
   9d9cc:	0000                	.insn	2, 0x
   9d9ce:	0000                	.insn	2, 0x
   9d9d0:	73756163          	bltu	a0,s7,9e0f2 <CSWTCH.6+0xd1e>
   9d9d4:	3a65                	.insn	2, 0x3a65
   9d9d6:	3120                	.insn	2, 0x3120
   9d9d8:	0a36                	.insn	2, 0x0a36
   9d9da:	0000                	.insn	2, 0x
   9d9dc:	73756163          	bltu	a0,s7,9e0fe <CSWTCH.6+0xd2a>
   9d9e0:	3a65                	.insn	2, 0x3a65
   9d9e2:	3120                	.insn	2, 0x3120
   9d9e4:	00000a37          	lui	s4,0x0
   9d9e8:	73756163          	bltu	a0,s7,9e10a <CSWTCH.6+0xd36>
   9d9ec:	3a65                	.insn	2, 0x3a65
   9d9ee:	3120                	.insn	2, 0x3120
   9d9f0:	0a38                	.insn	2, 0x0a38
   9d9f2:	0000                	.insn	2, 0x
   9d9f4:	6e55                	.insn	2, 0x6e55
   9d9f6:	776f6e6b          	.insn	4, 0x776f6e6b
   9d9fa:	206e                	.insn	2, 0x206e
   9d9fc:	6e69                	.insn	2, 0x6e69
   9d9fe:	6574                	.insn	2, 0x6574
   9da00:	7272                	.insn	2, 0x7272
   9da02:	7075                	.insn	2, 0x7075
   9da04:	2c74                	.insn	2, 0x2c74
   9da06:	6320                	.insn	2, 0x6320
   9da08:	7561                	.insn	2, 0x7561
   9da0a:	203a6573          	csrrsi	a0,0x203,20
   9da0e:	0000                	.insn	2, 0x
   9da10:	000a                	.insn	2, 0x000a
   9da12:	0000                	.insn	2, 0x
   9da14:	5b0a                	.insn	2, 0x5b0a
   9da16:	5845                	.insn	2, 0x5845
   9da18:	54504543          	.insn	4, 0x54504543
   9da1c:	4f49                	.insn	2, 0x4f49
   9da1e:	5d4e                	.insn	2, 0x5d4e
   9da20:	4920                	.insn	2, 0x4920
   9da22:	736e                	.insn	2, 0x736e
   9da24:	7274                	.insn	2, 0x7274
   9da26:	6375                	.insn	2, 0x6375
   9da28:	6974                	.insn	2, 0x6974
   9da2a:	61206e6f          	jal	t3,a403c <CSWTCH.6+0x6c68>
   9da2e:	6464                	.insn	2, 0x6464
   9da30:	6572                	.insn	2, 0x6572
   9da32:	6d207373          	csrrci	t1,0x6d2,0
   9da36:	7369                	.insn	2, 0x7369
   9da38:	6c61                	.insn	2, 0x6c61
   9da3a:	6769                	.insn	2, 0x6769
   9da3c:	6d6e                	.insn	2, 0x6d6e
   9da3e:	6e65                	.insn	2, 0x6e65
   9da40:	2e74                	.insn	2, 0x2e74
   9da42:	0020                	.insn	2, 0x0020
   9da44:	5b0a                	.insn	2, 0x5b0a
   9da46:	5845                	.insn	2, 0x5845
   9da48:	54504543          	.insn	4, 0x54504543
   9da4c:	4f49                	.insn	2, 0x4f49
   9da4e:	5d4e                	.insn	2, 0x5d4e
   9da50:	4920                	.insn	2, 0x4920
   9da52:	6c6c                	.insn	2, 0x6c6c
   9da54:	6765                	.insn	2, 0x6765
   9da56:	6c61                	.insn	2, 0x6c61
   9da58:	6920                	.insn	2, 0x6920
   9da5a:	736e                	.insn	2, 0x736e
   9da5c:	7274                	.insn	2, 0x7274
   9da5e:	6375                	.insn	2, 0x6375
   9da60:	6974                	.insn	2, 0x6974
   9da62:	202e6e6f          	jal	t3,183c64 <__stack_size+0x83c64>
   9da66:	0000                	.insn	2, 0x
   9da68:	5b0a                	.insn	2, 0x5b0a
   9da6a:	5845                	.insn	2, 0x5845
   9da6c:	54504543          	.insn	4, 0x54504543
   9da70:	4f49                	.insn	2, 0x4f49
   9da72:	5d4e                	.insn	2, 0x5d4e
   9da74:	5520                	.insn	2, 0x5520
   9da76:	6b6e                	.insn	2, 0x6b6e
   9da78:	6f6e                	.insn	2, 0x6f6e
   9da7a:	65206e77          	.insn	4, 0x65206e77
   9da7e:	7272                	.insn	2, 0x7272
   9da80:	202e726f          	jal	tp,184c82 <__stack_size+0x84c82>
   9da84:	0000                	.insn	2, 0x
   9da86:	0000                	.insn	2, 0x
   9da88:	7845                	.insn	2, 0x7845
   9da8a:	74706563          	bltu	zero,t2,9e1d4 <CSWTCH.6+0xe00>
   9da8e:	6f69                	.insn	2, 0x6f69
   9da90:	206e                	.insn	2, 0x206e
   9da92:	6441                	.insn	2, 0x6441
   9da94:	7264                	.insn	2, 0x7264
   9da96:	7365                	.insn	2, 0x7365
   9da98:	00203a73          	csrrc	s4,frm,zero

Disassembly of section .comment:

00000000 <.comment>:
   0:	3a434347          	.insn	4, 0x3a434347
   4:	2820                	.insn	2, 0x2820
   6:	2029                	.insn	2, 0x2029
   8:	3331                	.insn	2, 0x3331
   a:	322e                	.insn	2, 0x322e
   c:	302e                	.insn	2, 0x302e
	...

Disassembly of section .riscv.attributes:

00000000 <.riscv.attributes>:
   0:	3641                	.insn	2, 0x3641
   2:	0000                	.insn	2, 0x
   4:	7200                	.insn	2, 0x7200
   6:	7369                	.insn	2, 0x7369
   8:	01007663          	bgeu	zero,a6,14 <_isr_routine+0xc>
   c:	002c                	.insn	2, 0x002c
   e:	0000                	.insn	2, 0x
  10:	1004                	.insn	2, 0x1004
  12:	7205                	.insn	2, 0x7205
  14:	3376                	.insn	2, 0x3376
  16:	6932                	.insn	2, 0x6932
  18:	7032                	.insn	2, 0x7032
  1a:	5f31                	.insn	2, 0x5f31
  1c:	326d                	.insn	2, 0x326d
  1e:	3070                	.insn	2, 0x3070
  20:	7a5f 6369 7273      	.insn	6, 0x727363697a5f
  26:	7032                	.insn	2, 0x7032
  28:	5f30                	.insn	2, 0x5f30
  2a:	6d7a                	.insn	2, 0x6d7a
  2c:	756d                	.insn	2, 0x756d
  2e:	316c                	.insn	2, 0x316c
  30:	3070                	.insn	2, 0x3070
  32:	0800                	.insn	2, 0x0800
  34:	0a01                	.insn	2, 0x0a01
  36:	Address 0x36 is out of bounds.

